
E:\Code\LPC\Projects_1768\sensors\Debug\sensors.axf:     file format elf32-littlearm
E:\Code\LPC\Projects_1768\sensors\Debug\sensors.axf
architecture: arm, flags 0x00000112:
EXEC_P, HAS_SYMS, D_PAGED
start address 0x00000129

Program Header:
    LOAD off    0x00008000 vaddr 0x00000000 paddr 0x00000000 align 2**15
         filesz 0x000053f0 memsz 0x000053f0 flags r-x
    LOAD off    0x00010000 vaddr 0x10000000 paddr 0x000053f0 align 2**15
         filesz 0x00000008 memsz 0x00000008 flags rw-
    LOAD off    0x00010008 vaddr 0x10000008 paddr 0x10000008 align 2**15
         filesz 0x00000000 memsz 0x00000340 flags rw-
private flags = 5000002: [Version5 EABI] [has entry point]

Sections:
Idx Name          Size      VMA       LMA       File off  Algn
  0 .text         000053f0  00000000  00000000  00008000  2**2
                  CONTENTS, ALLOC, LOAD, READONLY, CODE
  1 .data         00000008  10000000  000053f0  00010000  2**2
                  CONTENTS, ALLOC, LOAD, DATA
  2 .bss          00000340  10000008  10000008  00010008  2**2
                  ALLOC
  3 .debug_info   0000c152  00000000  00000000  00010008  2**0
                  CONTENTS, READONLY, DEBUGGING
  4 .debug_abbrev 00002a19  00000000  00000000  0001c15a  2**0
                  CONTENTS, READONLY, DEBUGGING
  5 .debug_loc    00002dc4  00000000  00000000  0001eb73  2**0
                  CONTENTS, READONLY, DEBUGGING
  6 .debug_aranges 00000938  00000000  00000000  00021937  2**0
                  CONTENTS, READONLY, DEBUGGING
  7 .debug_ranges 000007c8  00000000  00000000  0002226f  2**0
                  CONTENTS, READONLY, DEBUGGING
  8 .debug_line   0000c539  00000000  00000000  00022a37  2**0
                  CONTENTS, READONLY, DEBUGGING
  9 .debug_macinfo 001636da  00000000  00000000  0002ef70  2**0
                  CONTENTS, READONLY, DEBUGGING
 10 .debug_str    00002bba  00000000  00000000  0019264a  2**0
                  CONTENTS, READONLY, DEBUGGING
 11 .comment      00000070  00000000  00000000  00195204  2**0
                  CONTENTS, READONLY
 12 .ARM.attributes 00000031  00000000  00000000  00195274  2**0
                  CONTENTS, READONLY
 13 .debug_frame  00001ad8  00000000  00000000  001952a8  2**2
                  CONTENTS, READONLY, DEBUGGING
SYMBOL TABLE:
00000000 l    d  .text	00000000 .text
10000000 l    d  .data	00000000 .data
10000008 l    d  .bss	00000000 .bss
00000000 l    d  .debug_info	00000000 .debug_info
00000000 l    d  .debug_abbrev	00000000 .debug_abbrev
00000000 l    d  .debug_loc	00000000 .debug_loc
00000000 l    d  .debug_aranges	00000000 .debug_aranges
00000000 l    d  .debug_ranges	00000000 .debug_ranges
00000000 l    d  .debug_line	00000000 .debug_line
00000000 l    d  .debug_macinfo	00000000 .debug_macinfo
00000000 l    d  .debug_str	00000000 .debug_str
00000000 l    d  .comment	00000000 .comment
00000000 l    d  .ARM.attributes	00000000 .ARM.attributes
00000000 l    d  .debug_frame	00000000 .debug_frame
00000000 l    df *ABS*	00000000 cr_startup_lpc176x.c
00000000 l    df *ABS*	00000000 main.c
00000000 l    df *ABS*	00000000 sensor_adc.c
10000008 l     O .bss	00000004 value
1000000c l     O .bss	00000006 range_
000002bc l     F .text	000000aa init_
00000368 l     F .text	0000001c set_on_
00000384 l     F .text	0000001c set_off_
000003a0 l     F .text	0000005c set_range_
000003fc l     F .text	000000ac get_measurement_
00000000 l    df *ABS*	00000000 sensor_bh1750.c
10000014 l     O .bss	00000004 value_
10000018 l     O .bss	0000002c txsetup
10000044 l     O .bss	0000002c rxsetup
10000070 l     O .bss	00000001 range_
000004a8 l     F .text	000000aa init_
00000554 l     F .text	00000014 set_on_
00000568 l     F .text	00000014 set_off_
0000057c l     F .text	0000005c set_range_
000005d8 l     F .text	00000054 get_measurement_
0000062c l     F .text	0000004a sendCmd
00000678 l     F .text	00000062 readData
00000000 l    df *ABS*	00000000 sensor_hmc5883.c
10000074 l     O .bss	0000000c value_
10000080 l     O .bss	0000002c txsetup
100000ac l     O .bss	0000002c rxsetup
100000d8 l     O .bss	00000001 range_
000006dc l     F .text	000000aa init_
00000788 l     F .text	00000010 set_on_
00000798 l     F .text	00000010 set_off_
000007a8 l     F .text	0000005c set_range_
00000804 l     F .text	000000b4 get_measurement_
000008b8 l     F .text	00000064 writeReg
0000091c l     F .text	00000058 setPointer
00000974 l     F .text	000000ba readData
00000000 l    df *ABS*	00000000 sensor_mlx90614.c
100000dc l     O .bss	00000004 value_
100000e0 l     O .bss	0000002c txsetup
1000010c l     O .bss	0000002c rxsetup
10000138 l     O .bss	00000003 range_
00000a30 l     F .text	00000088 init_
00000ab8 l     F .text	00000010 set_on_
00000ac8 l     F .text	00000010 set_off_
00000ad8 l     F .text	0000005c set_range_
00000b34 l     F .text	00000094 get_measurement_
00000bc8 l     F .text	0000006c readRAM
00000000 l    df *ABS*	00000000 sensor_mpu6050.c
1000013c l     O .bss	0000000c value_
10000148 l     O .bss	0000002c txsetup
10000174 l     O .bss	0000002c rxsetup
100001a0 l     O .bss	00000003 range_
00000c34 l     F .text	0000007e init_
00000cb4 l     F .text	00000018 set_on_
00000ccc l     F .text	00000018 set_off_
00000ce4 l     F .text	0000005c set_range_
00000d40 l     F .text	00000168 get_measurement_
00000f44 l     F .text	00000064 writeReg
00000ea8 l     F .text	00000022 getAcceleration
00000ecc l     F .text	00000022 getAngularRate
00000ef0 l     F .text	00000054 getTemperature
00000fa8 l     F .text	00000076 readBurst
00000000 l    df *ABS*	00000000 sensor_ms5611.c
100001a4 l     O .bss	00000004 value_
100001a8 l     O .bss	0000002c txsetup
100001d4 l     O .bss	0000002c rxsetup
10000200 l     O .bss	0000000c calibration
1000020c l     O .bss	00000002 range_
00001020 l     F .text	000000c2 init_
000010e4 l     F .text	00000010 set_on_
000010f4 l     F .text	00000010 set_off_
00001104 l     F .text	0000005c set_range_
00001160 l     F .text	000000dc get_measurement_
0000123c l     F .text	0000004a sendCmd
00001310 l     F .text	0000008c readCalibration
00001288 l     F .text	00000088 readData
0000139c l     F .text	00000172 calcPressure
00001510 l     F .text	0000005c calcTemperature
00000000 l    df *ABS*	00000000 sensor_sht21.c
10000210 l     O .bss	00000004 value_
10000214 l     O .bss	0000002c txsetup
10000240 l     O .bss	0000002c rxsetup
1000026c l     O .bss	00000002 range_
0000156c l     F .text	00000096 init_
00001604 l     F .text	00000010 set_on_
00001614 l     F .text	00000010 set_off_
00001624 l     F .text	0000005c set_range_
00001680 l     F .text	000000c0 get_measurement_
000017f0 l     F .text	00000036 getHumidity
00001828 l     F .text	00000036 getTemperature
00001740 l     F .text	0000004a sendCmd
0000178c l     F .text	00000062 readData
00000000 l    df *ABS*	00000000 sensors.c
1000027c l     O .bss	00000004 buffer_position.4922
10000000 l     O .data	00000001 cmd_state.4929
10000271 l     O .bss	00000001 count.4932
10000274 l     O .bss	00000003 arg.4931
10000278 l     O .bss	00000001 cmd.4930
00000000 l    df *ABS*	00000000 btm222_module.c
000026b0 l     F .text	00000036 NVIC_EnableIRQ
000026e8 l     F .text	0000005c NVIC_SetPriority
00000000 l    df *ABS*	00000000 delay_module.c
00000000 l    df *ABS*	00000000 lpc17xx_adc.c
00000000 l    df *ABS*	00000000 lpc17xx_clkpwr.c
00000000 l    df *ABS*	00000000 lpc17xx_i2c.c
00002f04 l     F .text	00000036 NVIC_EnableIRQ
00002f3c l     F .text	0000003a NVIC_DisableIRQ
10000288 l     O .bss	00000018 i2cdat
00002f78 l     F .text	00000054 I2C_getNum
00002fcc l     F .text	00000048 I2C_Start
00003014 l     F .text	00000036 I2C_Stop
0000304c l     F .text	00000050 I2C_SendByte
0000309c l     F .text	0000005a I2C_GetByte
000030f8 l     F .text	0000008c I2C_SetClock
00000000 l    df *ABS*	00000000 lpc17xx_pinsel.c
00003758 l     F .text	0000009a set_PinFunc
000037f4 l     F .text	0000009a set_ResistorMode
00003890 l     F .text	0000007a set_OpenDrainMode
00000000 l    df *ABS*	00000000 lpc17xx_timer.c
0000399c l     F .text	00000068 getPClock
00003a04 l     F .text	00000064 converUSecToVal
00003a68 l     F .text	0000006c converPtrToTimeNum
00000000 l    df *ABS*	00000000 lpc17xx_uart.c
00003c6c l     F .text	0000030a uart_set_divisors
00000000 l    df *ABS*	00000000 system_LPC17xx.c
00000000 l    df *ABS*	00000000 memcpy.c
00000000 l    df *ABS*	00000000 __weak__main.c
00004664 l       .text	00000000 ldiv64
00004702 l       .text	00000000 ldiv_divzero
00004634 l       .text	00000000 ldiv32
0000470e l       .text	00000000 udiv6432
0000463c l       .text	00000000 ldiv_return
00004652 l       .text	00000000 ldiv_sign
000046ec l       .text	00000000 ldiv_res01
0000472a l       .text	00000000 udiv6432_entry
00004716 l       .text	00000000 udiv6432_loop1
0000472c l       .text	00000000 udiv6432_loop
00000000 l    df *ABS*	00000000 float.c
00004af0 l       .text	00000000 lastbytes
00004ae4 l       .text	00000000 copy4
00000000 l    df *ABS*	00000000 sensor_template.c
00000000 l    df *ABS*	00000000 debug_module.c
00000000 l    df *ABS*	00000000 lpc17xx_can.c
00000000 l    df *ABS*	00000000 lpc17xx_dac.c
00000000 l    df *ABS*	00000000 lpc17xx_emac.c
00000000 l    df *ABS*	00000000 lpc17xx_exti.c
00000000 l    df *ABS*	00000000 lpc17xx_gpdma.c
00000000 l    df *ABS*	00000000 lpc17xx_gpio.c
00000000 l    df *ABS*	00000000 lpc17xx_i2s.c
00000000 l    df *ABS*	00000000 lpc17xx_mcpwm.c
00000000 l    df *ABS*	00000000 lpc17xx_nvic.c
00000000 l    df *ABS*	00000000 lpc17xx_pwm.c
00000000 l    df *ABS*	00000000 lpc17xx_qei.c
00000000 l    df *ABS*	00000000 lpc17xx_rit.c
00000000 l    df *ABS*	00000000 lpc17xx_rtc.c
00000000 l    df *ABS*	00000000 lpc17xx_spi.c
00000000 l    df *ABS*	00000000 lpc17xx_ssp.c
00000000 l    df *ABS*	00000000 lpc17xx_systick.c
00000000 l    df *ABS*	00000000 lpc17xx_wdt.c
00004610  w    F .text	00000004 __main
00000168  w    F .text	00000002 TIMER2_IRQHandler
00000100  w    F .text	00000002 DebugMon_Handler
00000168  w    F .text	00000002 RIT_IRQHandler
100002c4 g     O .bss	00000004 btm222_uart_status
000000cc g       .text	00000000 __section_table_start
00000168  w    F .text	00000002 I2C0_IRQHandler
00003948 g     F .text	00000052 PINSEL_ConfigPin
000000f6  w    F .text	00000002 HardFault_Handler
00002e8c g     F .text	00000078 CLKPWR_ConfigPPWR
000025e8 g     F .text	00000032 swap_int16
000050b0 g     O .text	00000028 sensor_mpu6050
00000104  w    F .text	00000002 SysTick_Handler
000001ac g     F .text	000000fa init_sensors
00000168  w    F .text	00000002 USBActivity_IRQHandler
00000168  w    F .text	00000002 PWM1_IRQHandler
00000102  w    F .text	00000002 PendSV_Handler
00004304 g     F .text	000000ee UART_IntConfig
000000f4  w    F .text	00000002 NMI_Handler
000053f0 g       *ABS*	00000000 __exidx_end
000000e4 g       .text	00000000 __data_section_table_end
00002cf8 g     F .text	000000ca CLKPWR_SetPCLKDiv
00000168  w    F .text	00000002 I2C1_IRQHandler
00000168  w    F .text	00000002 EINT2_IRQHandler
00000168  w    F .text	00000002 UART1_IRQHandler
00000168  w    F .text	00000002 EINT3_IRQHandler
00000168  w    F .text	00000002 CANActivity_IRQHandler
00001900 g     F .text	000001d2 sensor_cmd_process
000053f0 g       *ABS*	00000000 _etext
000049f8 g     F .text	000000a4 __aeabi_fadd
00003f78 g     F .text	0000024c UART_Init
00080000 g       *ABS*	00000000 __top_MFlash512
00000168  w    F .text	00000002 TIMER3_IRQHandler
000028d0 g     F .text	000001e0 UART0_IRQHandler
00000118 g     F .text	00000010 bss_init
0000460c g     F .text	00000004 memcpy
00004614 g     F .text	00000174 __aeabi_uldivmod
00003c34 g     F .text	00000036 TIM_Cmd
10000004 g     O .data	00000004 SystemCoreClock
00004ac4 g     F .text	00000010 __aeabi_i2f
000000fc  w    F .text	00000002 UsageFault_Handler
00004adc g     F .text	00000026 __aeabi_memcpy
20084000 g       *ABS*	00000000 __top_RamAHB32
00000168  w    F .text	00000002 IntDefaultHandler
00000168  w    F .text	00000002 PLL0_IRQHandler
00000168  w    F .text	00000002 CAN_IRQHandler
00000168  w    F .text	00000002 PLL1_IRQHandler
00004a9c g     F .text	00000026 __bhs_ui2f
10000280 g     O .bss	00000004 btm222_uart_count
00000168  w    F .text	00000002 SSP0_IRQHandler
000041c4 g     F .text	00000032 UART_SendByte
00003364 g     F .text	000000a8 I2C_IntCmd
000053f0 g       *ABS*	00000000 __exidx_start
00004adc g     F .text	00000026 __aeabi_memcpy4
10000284 g     O .bss	00000001 echo
00000168  w    F .text	00000002 I2S_IRQHandler
00000168  w    F .text	00000002 I2C2_IRQHandler
00004e54 g     O .text	00000028 sensor_hmc5883
000000cc g       .text	00000000 __data_section_table
00003184 g     F .text	00000142 I2C_Init
00004910 g     F .text	000000e8 __aeabi_fsub
00000168  w    F .text	00000002 RTC_IRQHandler
10000001 g     O .data	00000001 btm222_uart_txempty
10000348 g       .bss	00000000 _ebss
00004da4 g     O .text	00000028 sensor_bh1750
00000168  w    F .text	00000002 TIMER0_IRQHandler
00002c68 g     F .text	0000003c ADC_ChannelGetData
00002474 g     F .text	00000174 sensor_unit_string
00000168  w    F .text	00000002 SPI_IRQHandler
00004b70 g     O .text	00000028 sensor_adc
10008000 g       *ABS*	00000000 __top_RamLoc32
00000106 g     F .text	00000012 data_init
00004adc g     F .text	00000026 __aeabi_memcpy8
00000168  w    F .text	00000002 EINT1_IRQHandler
00000168  w    F .text	00000002 TIMER1_IRQHandler
100002c0 g     O .bss	00000004 sensors_
000041f8 g     F .text	0000010a UART_Send
00000168  w    F .text	00000002 UART2_IRQHandler
00001860 g     F .text	0000002e sensors_init
0000261c g     F .text	00000094 sensor_encode
00002dc4 g     F .text	00000054 CLKPWR_GetPCLKSEL
10000008 g       .bss	00000000 _bss
00002ab0 g     F .text	00000052 delay_init
00005328 g     O .text	00000028 sensor_sht21
0000390c g     F .text	0000003c PINSEL_SetI2C0Pins
00000168  w    F .text	00000002 ADC_IRQHandler
000043f4 g     F .text	000000ac UART_FIFOConfig
10008000 g       *ABS*	00000000 _vStackTop
00000168  w    F .text	00000002 SSP1_IRQHandler
000032c8 g     F .text	0000006a I2C_DeInit
00003334 g     F .text	0000002e I2C_Cmd
000000f4 g       .text	00000000 __bss_section_table_end
0000484c g     F .text	000000c2 __aeabi_fdiv
00004610 g     F .text	00000004 __weak_main
00000168  w    F .text	00000002 USB_IRQHandler
00002874 g     F .text	0000002c btm222_putc
00004ad4 g     F .text	00000008 __aeabi_ui2f
00000168  w    F .text	00000002 BOD_IRQHandler
100002c8 g     O .bss	00000080 btm222_uart_buffer
000028a0 g     F .text	00000030 btm222_puts
00002be0 g     F .text	00000034 ADC_PowerdownCmd
000000f8  w    F .text	00000002 MemManage_Handler
000002a8 g     F .text	00000012 main
00002b04 g     F .text	00000036 delay_ms
00000168  w    F .text	00000002 WDT_IRQHandler
0000284c g     F .text	00000026 btm222_send
000000fe  w    F .text	00000002 SVC_Handler
00004618 g     F .text	00000000 __bhs_ldivmod1
00004528 g     F .text	000000e4 SystemInit
00000168  w    F .text	00000002 QEI_IRQHandler
000000e4 g       .text	00000000 __bss_section_table
10000270 g     O .bss	00000001 no_of_sensors_
00002e18 g     F .text	00000072 CLKPWR_GetPCLK
0000520c g     O .text	00000028 sensor_ms5611
00000168  w    F .text	00000002 EINT0_IRQHandler
10000000 g       .debug_info	00000000 _end_uninit_RESERVED
0000478c g     F .text	000000be __aeabi_fmul
00002c14 g     F .text	00000052 ADC_ChannelCmd
10000000 g       .data	00000000 _data
00002bac g     F .text	00000034 ADC_StartCmd
000000f4 g       .text	00000000 __section_table_end
00001890 g     F .text	00000070 sensor_handler
00002b3c g     F .text	00000070 ADC_Init
00004f44 g     O .text	00000028 sensor_mlx90614
10000008 g       .data	00000000 _edata
00001ad4 g     F .text	0000099e sensor_cmd_run
00003ad4 g     F .text	00000160 TIM_Init
0000340c g     F .text	0000034c I2C_MasterTransferData
00000000 g     O .text	000000cc g_pfnVectors
00000128 g     F .text	00000040 ResetISR
00000168  w    F .text	00000002 DMA_IRQHandler
00004788 g     F .text	00000002 __aeabi_idiv0
000000fa  w    F .text	00000002 BusFault_Handler
0000016c g     F .text	0000003e init_interfaces
00000168  w    F .text	00000002 UART3_IRQHandler
00000168  w    F .text	00000002 MCPWM_IRQHandler
100002a0 g     O .bss	00000020 sensors
00002ca4 g     F .text	00000054 ADC_ChannelGetStatus
00000168  w    F .text	00000002 ENET_IRQHandler
00002744 g     F .text	00000106 btm222_init
000044a0 g     F .text	00000086 UART_TxCmd



Disassembly of section .text:

00000000 <g_pfnVectors>:
       0:	00 80 00 10 29 01 00 00 f5 00 00 00 f7 00 00 00     ....)...........
      10:	f9 00 00 00 fb 00 00 00 fd 00 00 00 00 00 00 00     ................
	...
      2c:	ff 00 00 00 01 01 00 00 00 00 00 00 03 01 00 00     ................
      3c:	05 01 00 00 69 01 00 00 69 01 00 00 69 01 00 00     ....i...i...i...
      4c:	69 01 00 00 69 01 00 00 d1 28 00 00 69 01 00 00     i...i....(..i...
      5c:	69 01 00 00 69 01 00 00 69 01 00 00 69 01 00 00     i...i...i...i...
      6c:	69 01 00 00 69 01 00 00 69 01 00 00 69 01 00 00     i...i...i...i...
      7c:	69 01 00 00 69 01 00 00 69 01 00 00 69 01 00 00     i...i...i...i...
      8c:	69 01 00 00 69 01 00 00 69 01 00 00 69 01 00 00     i...i...i...i...
      9c:	69 01 00 00 69 01 00 00 69 01 00 00 69 01 00 00     i...i...i...i...
      ac:	69 01 00 00 69 01 00 00 69 01 00 00 69 01 00 00     i...i...i...i...
      bc:	69 01 00 00 69 01 00 00 69 01 00 00 69 01 00 00     i...i...i...i...

000000cc <__data_section_table>:
      cc:	000053f0 	.word	0x000053f0
      d0:	10000000 	.word	0x10000000
      d4:	00000008 	.word	0x00000008
      d8:	000053f0 	.word	0x000053f0
      dc:	2007c000 	.word	0x2007c000
      e0:	00000000 	.word	0x00000000

000000e4 <__bss_section_table>:
      e4:	10000008 	.word	0x10000008
      e8:	00000340 	.word	0x00000340
      ec:	2007c000 	.word	0x2007c000
      f0:	00000000 	.word	0x00000000

000000f4 <NMI_Handler>:
      f4:	e7fe      	b.n	f4 <NMI_Handler>

000000f6 <HardFault_Handler>:
      f6:	e7fe      	b.n	f6 <HardFault_Handler>

000000f8 <MemManage_Handler>:
      f8:	e7fe      	b.n	f8 <MemManage_Handler>

000000fa <BusFault_Handler>:
      fa:	e7fe      	b.n	fa <BusFault_Handler>

000000fc <UsageFault_Handler>:
      fc:	e7fe      	b.n	fc <UsageFault_Handler>

000000fe <SVC_Handler>:
      fe:	e7fe      	b.n	fe <SVC_Handler>

00000100 <DebugMon_Handler>:
     100:	e7fe      	b.n	100 <DebugMon_Handler>

00000102 <PendSV_Handler>:
     102:	e7fe      	b.n	102 <PendSV_Handler>

00000104 <SysTick_Handler>:
     104:	e7fe      	b.n	104 <SysTick_Handler>

00000106 <data_init>:
     106:	b510      	push	{r4, lr}
     108:	2300      	movs	r3, #0
     10a:	e002      	b.n	112 <data_init+0xc>
     10c:	581c      	ldr	r4, [r3, r0]
     10e:	505c      	str	r4, [r3, r1]
     110:	3304      	adds	r3, #4
     112:	4293      	cmp	r3, r2
     114:	d3fa      	bcc.n	10c <data_init+0x6>
     116:	bd10      	pop	{r4, pc}

00000118 <bss_init>:
     118:	2300      	movs	r3, #0
     11a:	461a      	mov	r2, r3
     11c:	e001      	b.n	122 <bss_init+0xa>
     11e:	501a      	str	r2, [r3, r0]
     120:	3304      	adds	r3, #4
     122:	428b      	cmp	r3, r1
     124:	d3fb      	bcc.n	11e <bss_init+0x6>
     126:	4770      	bx	lr

00000128 <ResetISR>:
     128:	b538      	push	{r3, r4, r5, lr}
     12a:	4c0c      	ldr	r4, [pc, #48]	; (15c <ResetISR+0x34>)
     12c:	4d0c      	ldr	r5, [pc, #48]	; (160 <ResetISR+0x38>)
     12e:	e004      	b.n	13a <ResetISR+0x12>
     130:	e894 0007 	ldmia.w	r4, {r0, r1, r2}
     134:	340c      	adds	r4, #12
     136:	f7ff ffe6 	bl	106 <data_init>
     13a:	42ac      	cmp	r4, r5
     13c:	d3f8      	bcc.n	130 <ResetISR+0x8>
     13e:	e005      	b.n	14c <ResetISR+0x24>
     140:	e894 0003 	ldmia.w	r4, {r0, r1}
     144:	3408      	adds	r4, #8
     146:	f7ff ffe7 	bl	118 <bss_init>
     14a:	e000      	b.n	14e <ResetISR+0x26>
     14c:	4d05      	ldr	r5, [pc, #20]	; (164 <ResetISR+0x3c>)
     14e:	42ac      	cmp	r4, r5
     150:	d3f6      	bcc.n	140 <ResetISR+0x18>
     152:	f004 f9e9 	bl	4528 <SystemInit>
     156:	f004 fa5b 	bl	4610 <__weak_main>
     15a:	e7fe      	b.n	15a <ResetISR+0x32>
     15c:	000000cc 	.word	0x000000cc
     160:	000000e4 	.word	0x000000e4
     164:	000000f4 	.word	0x000000f4

00000168 <ADC_IRQHandler>:
     168:	e7fe      	b.n	168 <ADC_IRQHandler>
     16a:	bf00      	nop

0000016c <init_interfaces>:
     16c:	b580      	push	{r7, lr}
     16e:	af00      	add	r7, sp, #0
     170:	f002 fc9e 	bl	2ab0 <delay_init>
     174:	f44f 30e1 	mov.w	r0, #115200	; 0x1c200
     178:	f002 fae4 	bl	2744 <btm222_init>
     17c:	f44f 4040 	mov.w	r0, #49152	; 0xc000
     180:	f2c4 0001 	movt	r0, #16385	; 0x4001
     184:	f248 61a0 	movw	r1, #34464	; 0x86a0
     188:	f2c0 0101 	movt	r1, #1
     18c:	f002 fffa 	bl	3184 <I2C_Init>
     190:	f44f 4040 	mov.w	r0, #49152	; 0xc000
     194:	f2c4 0005 	movt	r0, #16389	; 0x4005
     198:	f003 f896 	bl	32c8 <I2C_DeInit>
     19c:	f04f 0000 	mov.w	r0, #0
     1a0:	f2c4 000a 	movt	r0, #16394	; 0x400a
     1a4:	f003 f890 	bl	32c8 <I2C_DeInit>
     1a8:	bd80      	pop	{r7, pc}
     1aa:	bf00      	nop

000001ac <init_sensors>:
     1ac:	b580      	push	{r7, lr}
     1ae:	af00      	add	r7, sp, #0
     1b0:	f644 3370 	movw	r3, #19312	; 0x4b70
     1b4:	f2c0 0300 	movt	r3, #0
     1b8:	695b      	ldr	r3, [r3, #20]
     1ba:	4798      	blx	r3
     1bc:	f644 53a4 	movw	r3, #19876	; 0x4da4
     1c0:	f2c0 0300 	movt	r3, #0
     1c4:	695b      	ldr	r3, [r3, #20]
     1c6:	4798      	blx	r3
     1c8:	f245 230c 	movw	r3, #21004	; 0x520c
     1cc:	f2c0 0300 	movt	r3, #0
     1d0:	695b      	ldr	r3, [r3, #20]
     1d2:	4798      	blx	r3
     1d4:	f245 03b0 	movw	r3, #20656	; 0x50b0
     1d8:	f2c0 0300 	movt	r3, #0
     1dc:	695b      	ldr	r3, [r3, #20]
     1de:	4798      	blx	r3
     1e0:	f644 6354 	movw	r3, #20052	; 0x4e54
     1e4:	f2c0 0300 	movt	r3, #0
     1e8:	695b      	ldr	r3, [r3, #20]
     1ea:	4798      	blx	r3
     1ec:	f245 3328 	movw	r3, #21288	; 0x5328
     1f0:	f2c0 0300 	movt	r3, #0
     1f4:	695b      	ldr	r3, [r3, #20]
     1f6:	4798      	blx	r3
     1f8:	f644 7344 	movw	r3, #20292	; 0x4f44
     1fc:	f2c0 0300 	movt	r3, #0
     200:	695b      	ldr	r3, [r3, #20]
     202:	4798      	blx	r3
     204:	f240 23a0 	movw	r3, #672	; 0x2a0
     208:	f2c1 0300 	movt	r3, #4096	; 0x1000
     20c:	f644 52a4 	movw	r2, #19876	; 0x4da4
     210:	f2c0 0200 	movt	r2, #0
     214:	601a      	str	r2, [r3, #0]
     216:	f240 23a0 	movw	r3, #672	; 0x2a0
     21a:	f2c1 0300 	movt	r3, #4096	; 0x1000
     21e:	f245 220c 	movw	r2, #21004	; 0x520c
     222:	f2c0 0200 	movt	r2, #0
     226:	605a      	str	r2, [r3, #4]
     228:	f240 23a0 	movw	r3, #672	; 0x2a0
     22c:	f2c1 0300 	movt	r3, #4096	; 0x1000
     230:	f644 52a4 	movw	r2, #19876	; 0x4da4
     234:	f2c0 0200 	movt	r2, #0
     238:	609a      	str	r2, [r3, #8]
     23a:	f240 23a0 	movw	r3, #672	; 0x2a0
     23e:	f2c1 0300 	movt	r3, #4096	; 0x1000
     242:	f245 02b0 	movw	r2, #20656	; 0x50b0
     246:	f2c0 0200 	movt	r2, #0
     24a:	60da      	str	r2, [r3, #12]
     24c:	f240 23a0 	movw	r3, #672	; 0x2a0
     250:	f2c1 0300 	movt	r3, #4096	; 0x1000
     254:	f644 6254 	movw	r2, #20052	; 0x4e54
     258:	f2c0 0200 	movt	r2, #0
     25c:	611a      	str	r2, [r3, #16]
     25e:	f240 23a0 	movw	r3, #672	; 0x2a0
     262:	f2c1 0300 	movt	r3, #4096	; 0x1000
     266:	f644 7244 	movw	r2, #20292	; 0x4f44
     26a:	f2c0 0200 	movt	r2, #0
     26e:	615a      	str	r2, [r3, #20]
     270:	f240 23a0 	movw	r3, #672	; 0x2a0
     274:	f2c1 0300 	movt	r3, #4096	; 0x1000
     278:	f245 3228 	movw	r2, #21288	; 0x5328
     27c:	f2c0 0200 	movt	r2, #0
     280:	619a      	str	r2, [r3, #24]
     282:	f240 23a0 	movw	r3, #672	; 0x2a0
     286:	f2c1 0300 	movt	r3, #4096	; 0x1000
     28a:	f644 3270 	movw	r2, #19312	; 0x4b70
     28e:	f2c0 0200 	movt	r2, #0
     292:	61da      	str	r2, [r3, #28]
     294:	f04f 0008 	mov.w	r0, #8
     298:	f240 21a0 	movw	r1, #672	; 0x2a0
     29c:	f2c1 0100 	movt	r1, #4096	; 0x1000
     2a0:	f001 fade 	bl	1860 <sensors_init>
     2a4:	bd80      	pop	{r7, pc}
     2a6:	bf00      	nop

000002a8 <main>:
     2a8:	b580      	push	{r7, lr}
     2aa:	af00      	add	r7, sp, #0
     2ac:	f7ff ff5e 	bl	16c <init_interfaces>
     2b0:	f7ff ff7c 	bl	1ac <init_sensors>
     2b4:	f001 faec 	bl	1890 <sensor_handler>
     2b8:	e7fc      	b.n	2b4 <main+0xc>
     2ba:	bf00      	nop

000002bc <init_>:
     2bc:	b580      	push	{r7, lr}
     2be:	b082      	sub	sp, #8
     2c0:	af00      	add	r7, sp, #0
     2c2:	f04f 0300 	mov.w	r3, #0
     2c6:	703b      	strb	r3, [r7, #0]
     2c8:	f04f 0301 	mov.w	r3, #1
     2cc:	70bb      	strb	r3, [r7, #2]
     2ce:	f04f 0302 	mov.w	r3, #2
     2d2:	70fb      	strb	r3, [r7, #3]
     2d4:	f04f 0300 	mov.w	r3, #0
     2d8:	713b      	strb	r3, [r7, #4]
     2da:	f04f 0317 	mov.w	r3, #23
     2de:	707b      	strb	r3, [r7, #1]
     2e0:	463b      	mov	r3, r7
     2e2:	4618      	mov	r0, r3
     2e4:	f003 fb30 	bl	3948 <PINSEL_ConfigPin>
     2e8:	f04f 0318 	mov.w	r3, #24
     2ec:	707b      	strb	r3, [r7, #1]
     2ee:	463b      	mov	r3, r7
     2f0:	4618      	mov	r0, r3
     2f2:	f003 fb29 	bl	3948 <PINSEL_ConfigPin>
     2f6:	f04f 0319 	mov.w	r3, #25
     2fa:	707b      	strb	r3, [r7, #1]
     2fc:	463b      	mov	r3, r7
     2fe:	4618      	mov	r0, r3
     300:	f003 fb22 	bl	3948 <PINSEL_ConfigPin>
     304:	f04f 031a 	mov.w	r3, #26
     308:	707b      	strb	r3, [r7, #1]
     30a:	463b      	mov	r3, r7
     30c:	4618      	mov	r0, r3
     30e:	f003 fb1b 	bl	3948 <PINSEL_ConfigPin>
     312:	f04f 0301 	mov.w	r3, #1
     316:	703b      	strb	r3, [r7, #0]
     318:	f04f 0303 	mov.w	r3, #3
     31c:	70bb      	strb	r3, [r7, #2]
     31e:	f04f 031e 	mov.w	r3, #30
     322:	707b      	strb	r3, [r7, #1]
     324:	463b      	mov	r3, r7
     326:	4618      	mov	r0, r3
     328:	f003 fb0e 	bl	3948 <PINSEL_ConfigPin>
     32c:	f04f 031f 	mov.w	r3, #31
     330:	707b      	strb	r3, [r7, #1]
     332:	463b      	mov	r3, r7
     334:	4618      	mov	r0, r3
     336:	f003 fb07 	bl	3948 <PINSEL_ConfigPin>
     33a:	f44f 4080 	mov.w	r0, #16384	; 0x4000
     33e:	f2c4 0003 	movt	r0, #16387	; 0x4003
     342:	f44f 6154 	mov.w	r1, #3392	; 0xd40
     346:	f2c0 0103 	movt	r1, #3
     34a:	f002 fbf7 	bl	2b3c <ADC_Init>
     34e:	f44f 4080 	mov.w	r0, #16384	; 0x4000
     352:	f2c4 0003 	movt	r0, #16387	; 0x4003
     356:	f04f 0101 	mov.w	r1, #1
     35a:	f002 fc41 	bl	2be0 <ADC_PowerdownCmd>
     35e:	f107 0708 	add.w	r7, r7, #8
     362:	46bd      	mov	sp, r7
     364:	bd80      	pop	{r7, pc}
     366:	bf00      	nop

00000368 <set_on_>:
     368:	b580      	push	{r7, lr}
     36a:	af00      	add	r7, sp, #0
     36c:	f44f 4080 	mov.w	r0, #16384	; 0x4000
     370:	f2c4 0003 	movt	r0, #16387	; 0x4003
     374:	f04f 0101 	mov.w	r1, #1
     378:	f002 fc32 	bl	2be0 <ADC_PowerdownCmd>
     37c:	f04f 0300 	mov.w	r3, #0
     380:	4618      	mov	r0, r3
     382:	bd80      	pop	{r7, pc}

00000384 <set_off_>:
     384:	b580      	push	{r7, lr}
     386:	af00      	add	r7, sp, #0
     388:	f44f 4080 	mov.w	r0, #16384	; 0x4000
     38c:	f2c4 0003 	movt	r0, #16387	; 0x4003
     390:	f04f 0100 	mov.w	r1, #0
     394:	f002 fc24 	bl	2be0 <ADC_PowerdownCmd>
     398:	f04f 0300 	mov.w	r3, #0
     39c:	4618      	mov	r0, r3
     39e:	bd80      	pop	{r7, pc}

000003a0 <set_range_>:
     3a0:	b480      	push	{r7}
     3a2:	b083      	sub	sp, #12
     3a4:	af00      	add	r7, sp, #0
     3a6:	4602      	mov	r2, r0
     3a8:	460b      	mov	r3, r1
     3aa:	71fa      	strb	r2, [r7, #7]
     3ac:	71bb      	strb	r3, [r7, #6]
     3ae:	79fb      	ldrb	r3, [r7, #7]
     3b0:	2b05      	cmp	r3, #5
     3b2:	d81b      	bhi.n	3ec <set_range_+0x4c>
     3b4:	79f9      	ldrb	r1, [r7, #7]
     3b6:	f644 3270 	movw	r2, #19312	; 0x4b70
     3ba:	f2c0 0200 	movt	r2, #0
     3be:	460b      	mov	r3, r1
     3c0:	ea4f 0383 	mov.w	r3, r3, lsl #2
     3c4:	185b      	adds	r3, r3, r1
     3c6:	ea4f 1303 	mov.w	r3, r3, lsl #4
     3ca:	18d3      	adds	r3, r2, r3
     3cc:	f103 0328 	add.w	r3, r3, #40	; 0x28
     3d0:	791b      	ldrb	r3, [r3, #4]
     3d2:	79ba      	ldrb	r2, [r7, #6]
     3d4:	429a      	cmp	r2, r3
     3d6:	d209      	bcs.n	3ec <set_range_+0x4c>
     3d8:	79fa      	ldrb	r2, [r7, #7]
     3da:	f240 030c 	movw	r3, #12
     3de:	f2c1 0300 	movt	r3, #4096	; 0x1000
     3e2:	79b9      	ldrb	r1, [r7, #6]
     3e4:	5499      	strb	r1, [r3, r2]
     3e6:	f04f 0300 	mov.w	r3, #0
     3ea:	e001      	b.n	3f0 <set_range_+0x50>
     3ec:	f04f 0301 	mov.w	r3, #1
     3f0:	4618      	mov	r0, r3
     3f2:	f107 070c 	add.w	r7, r7, #12
     3f6:	46bd      	mov	sp, r7
     3f8:	bc80      	pop	{r7}
     3fa:	4770      	bx	lr

000003fc <get_measurement_>:
     3fc:	b580      	push	{r7, lr}
     3fe:	b082      	sub	sp, #8
     400:	af00      	add	r7, sp, #0
     402:	4603      	mov	r3, r0
     404:	71fb      	strb	r3, [r7, #7]
     406:	79fb      	ldrb	r3, [r7, #7]
     408:	2b05      	cmp	r3, #5
     40a:	d844      	bhi.n	496 <get_measurement_+0x9a>
     40c:	79fb      	ldrb	r3, [r7, #7]
     40e:	f44f 4080 	mov.w	r0, #16384	; 0x4000
     412:	f2c4 0003 	movt	r0, #16387	; 0x4003
     416:	4619      	mov	r1, r3
     418:	f04f 0201 	mov.w	r2, #1
     41c:	f002 fbfa 	bl	2c14 <ADC_ChannelCmd>
     420:	f44f 4080 	mov.w	r0, #16384	; 0x4000
     424:	f2c4 0003 	movt	r0, #16387	; 0x4003
     428:	f04f 0101 	mov.w	r1, #1
     42c:	f002 fbbe 	bl	2bac <ADC_StartCmd>
     430:	bf00      	nop
     432:	79fb      	ldrb	r3, [r7, #7]
     434:	f44f 4080 	mov.w	r0, #16384	; 0x4000
     438:	f2c4 0003 	movt	r0, #16387	; 0x4003
     43c:	4619      	mov	r1, r3
     43e:	f04f 0201 	mov.w	r2, #1
     442:	f002 fc2f 	bl	2ca4 <ADC_ChannelGetStatus>
     446:	4603      	mov	r3, r0
     448:	2b00      	cmp	r3, #0
     44a:	d0f2      	beq.n	432 <get_measurement_+0x36>
     44c:	79fb      	ldrb	r3, [r7, #7]
     44e:	f44f 4080 	mov.w	r0, #16384	; 0x4000
     452:	f2c4 0003 	movt	r0, #16387	; 0x4003
     456:	4619      	mov	r1, r3
     458:	f04f 0200 	mov.w	r2, #0
     45c:	f002 fbda 	bl	2c14 <ADC_ChannelCmd>
     460:	79fb      	ldrb	r3, [r7, #7]
     462:	f44f 4080 	mov.w	r0, #16384	; 0x4000
     466:	f2c4 0003 	movt	r0, #16387	; 0x4003
     46a:	4619      	mov	r1, r3
     46c:	f002 fbfc 	bl	2c68 <ADC_ChannelGetData>
     470:	4603      	mov	r3, r0
     472:	4618      	mov	r0, r3
     474:	f004 fb26 	bl	4ac4 <__aeabi_i2f>
     478:	4603      	mov	r3, r0
     47a:	4618      	mov	r0, r3
     47c:	4909      	ldr	r1, [pc, #36]	; (4a4 <get_measurement_+0xa8>)
     47e:	f004 f985 	bl	478c <__aeabi_fmul>
     482:	4603      	mov	r3, r0
     484:	461a      	mov	r2, r3
     486:	f240 0308 	movw	r3, #8
     48a:	f2c1 0300 	movt	r3, #4096	; 0x1000
     48e:	601a      	str	r2, [r3, #0]
     490:	f04f 0300 	mov.w	r3, #0
     494:	e001      	b.n	49a <get_measurement_+0x9e>
     496:	f04f 03ff 	mov.w	r3, #255	; 0xff
     49a:	4618      	mov	r0, r3
     49c:	f107 0708 	add.w	r7, r7, #8
     4a0:	46bd      	mov	sp, r7
     4a2:	bd80      	pop	{r7, pc}
     4a4:	3a533333 	.word	0x3a533333

000004a8 <init_>:
     4a8:	b580      	push	{r7, lr}
     4aa:	af00      	add	r7, sp, #0
     4ac:	f240 0318 	movw	r3, #24
     4b0:	f2c1 0300 	movt	r3, #4096	; 0x1000
     4b4:	f04f 0223 	mov.w	r2, #35	; 0x23
     4b8:	601a      	str	r2, [r3, #0]
     4ba:	f240 0318 	movw	r3, #24
     4be:	f2c1 0300 	movt	r3, #4096	; 0x1000
     4c2:	f04f 0201 	mov.w	r2, #1
     4c6:	609a      	str	r2, [r3, #8]
     4c8:	f240 0318 	movw	r3, #24
     4cc:	f2c1 0300 	movt	r3, #4096	; 0x1000
     4d0:	f04f 0200 	mov.w	r2, #0
     4d4:	611a      	str	r2, [r3, #16]
     4d6:	f240 0318 	movw	r3, #24
     4da:	f2c1 0300 	movt	r3, #4096	; 0x1000
     4de:	f04f 0200 	mov.w	r2, #0
     4e2:	615a      	str	r2, [r3, #20]
     4e4:	f240 0318 	movw	r3, #24
     4e8:	f2c1 0300 	movt	r3, #4096	; 0x1000
     4ec:	f04f 0203 	mov.w	r2, #3
     4f0:	61da      	str	r2, [r3, #28]
     4f2:	f240 0344 	movw	r3, #68	; 0x44
     4f6:	f2c1 0300 	movt	r3, #4096	; 0x1000
     4fa:	f04f 0223 	mov.w	r2, #35	; 0x23
     4fe:	601a      	str	r2, [r3, #0]
     500:	f240 0344 	movw	r3, #68	; 0x44
     504:	f2c1 0300 	movt	r3, #4096	; 0x1000
     508:	f04f 0200 	mov.w	r2, #0
     50c:	605a      	str	r2, [r3, #4]
     50e:	f240 0344 	movw	r3, #68	; 0x44
     512:	f2c1 0300 	movt	r3, #4096	; 0x1000
     516:	f04f 0200 	mov.w	r2, #0
     51a:	609a      	str	r2, [r3, #8]
     51c:	f240 0344 	movw	r3, #68	; 0x44
     520:	f2c1 0300 	movt	r3, #4096	; 0x1000
     524:	f04f 0202 	mov.w	r2, #2
     528:	615a      	str	r2, [r3, #20]
     52a:	f240 0344 	movw	r3, #68	; 0x44
     52e:	f2c1 0300 	movt	r3, #4096	; 0x1000
     532:	f04f 0203 	mov.w	r2, #3
     536:	61da      	str	r2, [r3, #28]
     538:	f04f 0007 	mov.w	r0, #7
     53c:	f000 f876 	bl	62c <sendCmd>
     540:	f04f 0010 	mov.w	r0, #16
     544:	f000 f872 	bl	62c <sendCmd>
     548:	f04f 00b4 	mov.w	r0, #180	; 0xb4
     54c:	f002 fada 	bl	2b04 <delay_ms>
     550:	bd80      	pop	{r7, pc}
     552:	bf00      	nop

00000554 <set_on_>:
     554:	b580      	push	{r7, lr}
     556:	af00      	add	r7, sp, #0
     558:	f04f 0001 	mov.w	r0, #1
     55c:	f000 f866 	bl	62c <sendCmd>
     560:	f04f 0300 	mov.w	r3, #0
     564:	4618      	mov	r0, r3
     566:	bd80      	pop	{r7, pc}

00000568 <set_off_>:
     568:	b580      	push	{r7, lr}
     56a:	af00      	add	r7, sp, #0
     56c:	f04f 0000 	mov.w	r0, #0
     570:	f000 f85c 	bl	62c <sendCmd>
     574:	f04f 0300 	mov.w	r3, #0
     578:	4618      	mov	r0, r3
     57a:	bd80      	pop	{r7, pc}

0000057c <set_range_>:
     57c:	b480      	push	{r7}
     57e:	b083      	sub	sp, #12
     580:	af00      	add	r7, sp, #0
     582:	4602      	mov	r2, r0
     584:	460b      	mov	r3, r1
     586:	71fa      	strb	r2, [r7, #7]
     588:	71bb      	strb	r3, [r7, #6]
     58a:	79fb      	ldrb	r3, [r7, #7]
     58c:	2b00      	cmp	r3, #0
     58e:	d11b      	bne.n	5c8 <set_range_+0x4c>
     590:	79f9      	ldrb	r1, [r7, #7]
     592:	f644 52a4 	movw	r2, #19876	; 0x4da4
     596:	f2c0 0200 	movt	r2, #0
     59a:	460b      	mov	r3, r1
     59c:	ea4f 0383 	mov.w	r3, r3, lsl #2
     5a0:	185b      	adds	r3, r3, r1
     5a2:	ea4f 1303 	mov.w	r3, r3, lsl #4
     5a6:	18d3      	adds	r3, r2, r3
     5a8:	f103 0328 	add.w	r3, r3, #40	; 0x28
     5ac:	791b      	ldrb	r3, [r3, #4]
     5ae:	79ba      	ldrb	r2, [r7, #6]
     5b0:	429a      	cmp	r2, r3
     5b2:	d209      	bcs.n	5c8 <set_range_+0x4c>
     5b4:	79fa      	ldrb	r2, [r7, #7]
     5b6:	f240 0370 	movw	r3, #112	; 0x70
     5ba:	f2c1 0300 	movt	r3, #4096	; 0x1000
     5be:	79b9      	ldrb	r1, [r7, #6]
     5c0:	5499      	strb	r1, [r3, r2]
     5c2:	f04f 0300 	mov.w	r3, #0
     5c6:	e001      	b.n	5cc <set_range_+0x50>
     5c8:	f04f 0301 	mov.w	r3, #1
     5cc:	4618      	mov	r0, r3
     5ce:	f107 070c 	add.w	r7, r7, #12
     5d2:	46bd      	mov	sp, r7
     5d4:	bc80      	pop	{r7}
     5d6:	4770      	bx	lr

000005d8 <get_measurement_>:
     5d8:	b580      	push	{r7, lr}
     5da:	b084      	sub	sp, #16
     5dc:	af00      	add	r7, sp, #0
     5de:	4603      	mov	r3, r0
     5e0:	71fb      	strb	r3, [r7, #7]
     5e2:	79fb      	ldrb	r3, [r7, #7]
     5e4:	2b00      	cmp	r3, #0
     5e6:	d117      	bne.n	618 <get_measurement_+0x40>
     5e8:	f107 030e 	add.w	r3, r7, #14
     5ec:	4618      	mov	r0, r3
     5ee:	f000 f843 	bl	678 <readData>
     5f2:	89fb      	ldrh	r3, [r7, #14]
     5f4:	4618      	mov	r0, r3
     5f6:	f004 fa6d 	bl	4ad4 <__aeabi_ui2f>
     5fa:	4603      	mov	r3, r0
     5fc:	4618      	mov	r0, r3
     5fe:	490a      	ldr	r1, [pc, #40]	; (628 <get_measurement_+0x50>)
     600:	f004 f924 	bl	484c <__aeabi_fdiv>
     604:	4603      	mov	r3, r0
     606:	461a      	mov	r2, r3
     608:	f240 0314 	movw	r3, #20
     60c:	f2c1 0300 	movt	r3, #4096	; 0x1000
     610:	601a      	str	r2, [r3, #0]
     612:	f04f 0300 	mov.w	r3, #0
     616:	e001      	b.n	61c <get_measurement_+0x44>
     618:	f04f 03ff 	mov.w	r3, #255	; 0xff
     61c:	4618      	mov	r0, r3
     61e:	f107 0710 	add.w	r7, r7, #16
     622:	46bd      	mov	sp, r7
     624:	bd80      	pop	{r7, pc}
     626:	bf00      	nop
     628:	3f99999a 	.word	0x3f99999a

0000062c <sendCmd>:
     62c:	b580      	push	{r7, lr}
     62e:	b082      	sub	sp, #8
     630:	af00      	add	r7, sp, #0
     632:	4603      	mov	r3, r0
     634:	71fb      	strb	r3, [r7, #7]
     636:	f240 0318 	movw	r3, #24
     63a:	f2c1 0300 	movt	r3, #4096	; 0x1000
     63e:	f107 0207 	add.w	r2, r7, #7
     642:	605a      	str	r2, [r3, #4]
     644:	f44f 4040 	mov.w	r0, #49152	; 0xc000
     648:	f2c4 0001 	movt	r0, #16385	; 0x4001
     64c:	f240 0118 	movw	r1, #24
     650:	f2c1 0100 	movt	r1, #4096	; 0x1000
     654:	f04f 0200 	mov.w	r2, #0
     658:	f002 fed8 	bl	340c <I2C_MasterTransferData>
     65c:	4603      	mov	r3, r0
     65e:	2b01      	cmp	r3, #1
     660:	d102      	bne.n	668 <sendCmd+0x3c>
     662:	f04f 0300 	mov.w	r3, #0
     666:	e001      	b.n	66c <sendCmd+0x40>
     668:	f04f 33ff 	mov.w	r3, #4294967295
     66c:	4618      	mov	r0, r3
     66e:	f107 0708 	add.w	r7, r7, #8
     672:	46bd      	mov	sp, r7
     674:	bd80      	pop	{r7, pc}
     676:	bf00      	nop

00000678 <readData>:
     678:	b580      	push	{r7, lr}
     67a:	b084      	sub	sp, #16
     67c:	af00      	add	r7, sp, #0
     67e:	6078      	str	r0, [r7, #4]
     680:	f240 0344 	movw	r3, #68	; 0x44
     684:	f2c1 0300 	movt	r3, #4096	; 0x1000
     688:	f107 020c 	add.w	r2, r7, #12
     68c:	611a      	str	r2, [r3, #16]
     68e:	f44f 4040 	mov.w	r0, #49152	; 0xc000
     692:	f2c4 0001 	movt	r0, #16385	; 0x4001
     696:	f240 0144 	movw	r1, #68	; 0x44
     69a:	f2c1 0100 	movt	r1, #4096	; 0x1000
     69e:	f04f 0200 	mov.w	r2, #0
     6a2:	f002 feb3 	bl	340c <I2C_MasterTransferData>
     6a6:	4603      	mov	r3, r0
     6a8:	2b01      	cmp	r3, #1
     6aa:	d10b      	bne.n	6c4 <readData+0x4c>
     6ac:	7b3b      	ldrb	r3, [r7, #12]
     6ae:	ea4f 2303 	mov.w	r3, r3, lsl #8
     6b2:	b29a      	uxth	r2, r3
     6b4:	7b7b      	ldrb	r3, [r7, #13]
     6b6:	18d3      	adds	r3, r2, r3
     6b8:	b29a      	uxth	r2, r3
     6ba:	687b      	ldr	r3, [r7, #4]
     6bc:	801a      	strh	r2, [r3, #0]
     6be:	f04f 0300 	mov.w	r3, #0
     6c2:	e005      	b.n	6d0 <readData+0x58>
     6c4:	687b      	ldr	r3, [r7, #4]
     6c6:	f04f 0200 	mov.w	r2, #0
     6ca:	801a      	strh	r2, [r3, #0]
     6cc:	f04f 33ff 	mov.w	r3, #4294967295
     6d0:	4618      	mov	r0, r3
     6d2:	f107 0710 	add.w	r7, r7, #16
     6d6:	46bd      	mov	sp, r7
     6d8:	bd80      	pop	{r7, pc}
     6da:	bf00      	nop

000006dc <init_>:
     6dc:	b580      	push	{r7, lr}
     6de:	af00      	add	r7, sp, #0
     6e0:	f240 0380 	movw	r3, #128	; 0x80
     6e4:	f2c1 0300 	movt	r3, #4096	; 0x1000
     6e8:	f04f 021e 	mov.w	r2, #30
     6ec:	601a      	str	r2, [r3, #0]
     6ee:	f240 0380 	movw	r3, #128	; 0x80
     6f2:	f2c1 0300 	movt	r3, #4096	; 0x1000
     6f6:	f04f 0202 	mov.w	r2, #2
     6fa:	609a      	str	r2, [r3, #8]
     6fc:	f240 0380 	movw	r3, #128	; 0x80
     700:	f2c1 0300 	movt	r3, #4096	; 0x1000
     704:	f04f 0200 	mov.w	r2, #0
     708:	611a      	str	r2, [r3, #16]
     70a:	f240 0380 	movw	r3, #128	; 0x80
     70e:	f2c1 0300 	movt	r3, #4096	; 0x1000
     712:	f04f 0200 	mov.w	r2, #0
     716:	615a      	str	r2, [r3, #20]
     718:	f240 0380 	movw	r3, #128	; 0x80
     71c:	f2c1 0300 	movt	r3, #4096	; 0x1000
     720:	f04f 0203 	mov.w	r2, #3
     724:	61da      	str	r2, [r3, #28]
     726:	f240 03ac 	movw	r3, #172	; 0xac
     72a:	f2c1 0300 	movt	r3, #4096	; 0x1000
     72e:	f04f 021e 	mov.w	r2, #30
     732:	601a      	str	r2, [r3, #0]
     734:	f240 03ac 	movw	r3, #172	; 0xac
     738:	f2c1 0300 	movt	r3, #4096	; 0x1000
     73c:	f04f 0200 	mov.w	r2, #0
     740:	605a      	str	r2, [r3, #4]
     742:	f240 03ac 	movw	r3, #172	; 0xac
     746:	f2c1 0300 	movt	r3, #4096	; 0x1000
     74a:	f04f 0200 	mov.w	r2, #0
     74e:	609a      	str	r2, [r3, #8]
     750:	f240 03ac 	movw	r3, #172	; 0xac
     754:	f2c1 0300 	movt	r3, #4096	; 0x1000
     758:	f04f 0203 	mov.w	r2, #3
     75c:	615a      	str	r2, [r3, #20]
     75e:	f240 03ac 	movw	r3, #172	; 0xac
     762:	f2c1 0300 	movt	r3, #4096	; 0x1000
     766:	f04f 0203 	mov.w	r2, #3
     76a:	61da      	str	r2, [r3, #28]
     76c:	f04f 0000 	mov.w	r0, #0
     770:	f04f 0160 	mov.w	r1, #96	; 0x60
     774:	f000 f8a0 	bl	8b8 <writeReg>
     778:	f04f 0001 	mov.w	r0, #1
     77c:	f04f 01e0 	mov.w	r1, #224	; 0xe0
     780:	f000 f89a 	bl	8b8 <writeReg>
     784:	bd80      	pop	{r7, pc}
     786:	bf00      	nop

00000788 <set_on_>:
     788:	b480      	push	{r7}
     78a:	af00      	add	r7, sp, #0
     78c:	f04f 0300 	mov.w	r3, #0
     790:	4618      	mov	r0, r3
     792:	46bd      	mov	sp, r7
     794:	bc80      	pop	{r7}
     796:	4770      	bx	lr

00000798 <set_off_>:
     798:	b480      	push	{r7}
     79a:	af00      	add	r7, sp, #0
     79c:	f04f 0300 	mov.w	r3, #0
     7a0:	4618      	mov	r0, r3
     7a2:	46bd      	mov	sp, r7
     7a4:	bc80      	pop	{r7}
     7a6:	4770      	bx	lr

000007a8 <set_range_>:
     7a8:	b480      	push	{r7}
     7aa:	b083      	sub	sp, #12
     7ac:	af00      	add	r7, sp, #0
     7ae:	4602      	mov	r2, r0
     7b0:	460b      	mov	r3, r1
     7b2:	71fa      	strb	r2, [r7, #7]
     7b4:	71bb      	strb	r3, [r7, #6]
     7b6:	79fb      	ldrb	r3, [r7, #7]
     7b8:	2b00      	cmp	r3, #0
     7ba:	d11b      	bne.n	7f4 <set_range_+0x4c>
     7bc:	79f9      	ldrb	r1, [r7, #7]
     7be:	f644 6254 	movw	r2, #20052	; 0x4e54
     7c2:	f2c0 0200 	movt	r2, #0
     7c6:	460b      	mov	r3, r1
     7c8:	ea4f 0383 	mov.w	r3, r3, lsl #2
     7cc:	185b      	adds	r3, r3, r1
     7ce:	ea4f 1303 	mov.w	r3, r3, lsl #4
     7d2:	18d3      	adds	r3, r2, r3
     7d4:	f103 0328 	add.w	r3, r3, #40	; 0x28
     7d8:	791b      	ldrb	r3, [r3, #4]
     7da:	79ba      	ldrb	r2, [r7, #6]
     7dc:	429a      	cmp	r2, r3
     7de:	d209      	bcs.n	7f4 <set_range_+0x4c>
     7e0:	79fa      	ldrb	r2, [r7, #7]
     7e2:	f240 03d8 	movw	r3, #216	; 0xd8
     7e6:	f2c1 0300 	movt	r3, #4096	; 0x1000
     7ea:	79b9      	ldrb	r1, [r7, #6]
     7ec:	5499      	strb	r1, [r3, r2]
     7ee:	f04f 0300 	mov.w	r3, #0
     7f2:	e001      	b.n	7f8 <set_range_+0x50>
     7f4:	f04f 0301 	mov.w	r3, #1
     7f8:	4618      	mov	r0, r3
     7fa:	f107 070c 	add.w	r7, r7, #12
     7fe:	46bd      	mov	sp, r7
     800:	bc80      	pop	{r7}
     802:	4770      	bx	lr

00000804 <get_measurement_>:
     804:	b580      	push	{r7, lr}
     806:	b084      	sub	sp, #16
     808:	af00      	add	r7, sp, #0
     80a:	4603      	mov	r3, r0
     80c:	71fb      	strb	r3, [r7, #7]
     80e:	79fb      	ldrb	r3, [r7, #7]
     810:	2b00      	cmp	r3, #0
     812:	d148      	bne.n	8a6 <get_measurement_+0xa2>
     814:	f04f 0002 	mov.w	r0, #2
     818:	f04f 0101 	mov.w	r1, #1
     81c:	f000 f84c 	bl	8b8 <writeReg>
     820:	f04f 0003 	mov.w	r0, #3
     824:	f000 f87a 	bl	91c <setPointer>
     828:	f04f 0006 	mov.w	r0, #6
     82c:	f002 f96a 	bl	2b04 <delay_ms>
     830:	f107 0308 	add.w	r3, r7, #8
     834:	4618      	mov	r0, r3
     836:	f000 f89d 	bl	974 <readData>
     83a:	893b      	ldrh	r3, [r7, #8]
     83c:	b21b      	sxth	r3, r3
     83e:	4618      	mov	r0, r3
     840:	f004 f940 	bl	4ac4 <__aeabi_i2f>
     844:	4603      	mov	r3, r0
     846:	4618      	mov	r0, r3
     848:	491a      	ldr	r1, [pc, #104]	; (8b4 <get_measurement_+0xb0>)
     84a:	f003 ffff 	bl	484c <__aeabi_fdiv>
     84e:	4603      	mov	r3, r0
     850:	461a      	mov	r2, r3
     852:	f240 0374 	movw	r3, #116	; 0x74
     856:	f2c1 0300 	movt	r3, #4096	; 0x1000
     85a:	601a      	str	r2, [r3, #0]
     85c:	897b      	ldrh	r3, [r7, #10]
     85e:	b21b      	sxth	r3, r3
     860:	4618      	mov	r0, r3
     862:	f004 f92f 	bl	4ac4 <__aeabi_i2f>
     866:	4603      	mov	r3, r0
     868:	4618      	mov	r0, r3
     86a:	4912      	ldr	r1, [pc, #72]	; (8b4 <get_measurement_+0xb0>)
     86c:	f003 ffee 	bl	484c <__aeabi_fdiv>
     870:	4603      	mov	r3, r0
     872:	461a      	mov	r2, r3
     874:	f240 0374 	movw	r3, #116	; 0x74
     878:	f2c1 0300 	movt	r3, #4096	; 0x1000
     87c:	605a      	str	r2, [r3, #4]
     87e:	89bb      	ldrh	r3, [r7, #12]
     880:	b21b      	sxth	r3, r3
     882:	4618      	mov	r0, r3
     884:	f004 f91e 	bl	4ac4 <__aeabi_i2f>
     888:	4603      	mov	r3, r0
     88a:	4618      	mov	r0, r3
     88c:	4909      	ldr	r1, [pc, #36]	; (8b4 <get_measurement_+0xb0>)
     88e:	f003 ffdd 	bl	484c <__aeabi_fdiv>
     892:	4603      	mov	r3, r0
     894:	461a      	mov	r2, r3
     896:	f240 0374 	movw	r3, #116	; 0x74
     89a:	f2c1 0300 	movt	r3, #4096	; 0x1000
     89e:	609a      	str	r2, [r3, #8]
     8a0:	f04f 0300 	mov.w	r3, #0
     8a4:	e001      	b.n	8aa <get_measurement_+0xa6>
     8a6:	f04f 03ff 	mov.w	r3, #255	; 0xff
     8aa:	4618      	mov	r0, r3
     8ac:	f107 0710 	add.w	r7, r7, #16
     8b0:	46bd      	mov	sp, r7
     8b2:	bd80      	pop	{r7, pc}
     8b4:	40133333 	.word	0x40133333

000008b8 <writeReg>:
     8b8:	b580      	push	{r7, lr}
     8ba:	b084      	sub	sp, #16
     8bc:	af00      	add	r7, sp, #0
     8be:	4602      	mov	r2, r0
     8c0:	460b      	mov	r3, r1
     8c2:	71fa      	strb	r2, [r7, #7]
     8c4:	71bb      	strb	r3, [r7, #6]
     8c6:	79fb      	ldrb	r3, [r7, #7]
     8c8:	733b      	strb	r3, [r7, #12]
     8ca:	79bb      	ldrb	r3, [r7, #6]
     8cc:	737b      	strb	r3, [r7, #13]
     8ce:	f240 0380 	movw	r3, #128	; 0x80
     8d2:	f2c1 0300 	movt	r3, #4096	; 0x1000
     8d6:	f04f 0202 	mov.w	r2, #2
     8da:	609a      	str	r2, [r3, #8]
     8dc:	f240 0380 	movw	r3, #128	; 0x80
     8e0:	f2c1 0300 	movt	r3, #4096	; 0x1000
     8e4:	f107 020c 	add.w	r2, r7, #12
     8e8:	605a      	str	r2, [r3, #4]
     8ea:	f44f 4040 	mov.w	r0, #49152	; 0xc000
     8ee:	f2c4 0001 	movt	r0, #16385	; 0x4001
     8f2:	f240 0180 	movw	r1, #128	; 0x80
     8f6:	f2c1 0100 	movt	r1, #4096	; 0x1000
     8fa:	f04f 0200 	mov.w	r2, #0
     8fe:	f002 fd85 	bl	340c <I2C_MasterTransferData>
     902:	4603      	mov	r3, r0
     904:	2b01      	cmp	r3, #1
     906:	d102      	bne.n	90e <writeReg+0x56>
     908:	f04f 0300 	mov.w	r3, #0
     90c:	e001      	b.n	912 <writeReg+0x5a>
     90e:	f04f 33ff 	mov.w	r3, #4294967295
     912:	4618      	mov	r0, r3
     914:	f107 0710 	add.w	r7, r7, #16
     918:	46bd      	mov	sp, r7
     91a:	bd80      	pop	{r7, pc}

0000091c <setPointer>:
     91c:	b580      	push	{r7, lr}
     91e:	b082      	sub	sp, #8
     920:	af00      	add	r7, sp, #0
     922:	4603      	mov	r3, r0
     924:	71fb      	strb	r3, [r7, #7]
     926:	f240 0380 	movw	r3, #128	; 0x80
     92a:	f2c1 0300 	movt	r3, #4096	; 0x1000
     92e:	f04f 0201 	mov.w	r2, #1
     932:	609a      	str	r2, [r3, #8]
     934:	f240 0380 	movw	r3, #128	; 0x80
     938:	f2c1 0300 	movt	r3, #4096	; 0x1000
     93c:	f107 0207 	add.w	r2, r7, #7
     940:	605a      	str	r2, [r3, #4]
     942:	f44f 4040 	mov.w	r0, #49152	; 0xc000
     946:	f2c4 0001 	movt	r0, #16385	; 0x4001
     94a:	f240 0180 	movw	r1, #128	; 0x80
     94e:	f2c1 0100 	movt	r1, #4096	; 0x1000
     952:	f04f 0200 	mov.w	r2, #0
     956:	f002 fd59 	bl	340c <I2C_MasterTransferData>
     95a:	4603      	mov	r3, r0
     95c:	2b01      	cmp	r3, #1
     95e:	d102      	bne.n	966 <setPointer+0x4a>
     960:	f04f 0300 	mov.w	r3, #0
     964:	e001      	b.n	96a <setPointer+0x4e>
     966:	f04f 33ff 	mov.w	r3, #4294967295
     96a:	4618      	mov	r0, r3
     96c:	f107 0708 	add.w	r7, r7, #8
     970:	46bd      	mov	sp, r7
     972:	bd80      	pop	{r7, pc}

00000974 <readData>:
     974:	b580      	push	{r7, lr}
     976:	b084      	sub	sp, #16
     978:	af00      	add	r7, sp, #0
     97a:	6078      	str	r0, [r7, #4]
     97c:	f240 03ac 	movw	r3, #172	; 0xac
     980:	f2c1 0300 	movt	r3, #4096	; 0x1000
     984:	f04f 0206 	mov.w	r2, #6
     988:	615a      	str	r2, [r3, #20]
     98a:	f240 03ac 	movw	r3, #172	; 0xac
     98e:	f2c1 0300 	movt	r3, #4096	; 0x1000
     992:	f107 0208 	add.w	r2, r7, #8
     996:	611a      	str	r2, [r3, #16]
     998:	f44f 4040 	mov.w	r0, #49152	; 0xc000
     99c:	f2c4 0001 	movt	r0, #16385	; 0x4001
     9a0:	f240 01ac 	movw	r1, #172	; 0xac
     9a4:	f2c1 0100 	movt	r1, #4096	; 0x1000
     9a8:	f04f 0200 	mov.w	r2, #0
     9ac:	f002 fd2e 	bl	340c <I2C_MasterTransferData>
     9b0:	4603      	mov	r3, r0
     9b2:	2b01      	cmp	r3, #1
     9b4:	d124      	bne.n	a00 <readData+0x8c>
     9b6:	7a3b      	ldrb	r3, [r7, #8]
     9b8:	ea4f 2303 	mov.w	r3, r3, lsl #8
     9bc:	b29a      	uxth	r2, r3
     9be:	7a7b      	ldrb	r3, [r7, #9]
     9c0:	18d3      	adds	r3, r2, r3
     9c2:	b29b      	uxth	r3, r3
     9c4:	b29a      	uxth	r2, r3
     9c6:	687b      	ldr	r3, [r7, #4]
     9c8:	801a      	strh	r2, [r3, #0]
     9ca:	687b      	ldr	r3, [r7, #4]
     9cc:	f103 0302 	add.w	r3, r3, #2
     9d0:	7aba      	ldrb	r2, [r7, #10]
     9d2:	ea4f 2202 	mov.w	r2, r2, lsl #8
     9d6:	b291      	uxth	r1, r2
     9d8:	7afa      	ldrb	r2, [r7, #11]
     9da:	188a      	adds	r2, r1, r2
     9dc:	b292      	uxth	r2, r2
     9de:	b292      	uxth	r2, r2
     9e0:	801a      	strh	r2, [r3, #0]
     9e2:	687b      	ldr	r3, [r7, #4]
     9e4:	f103 0304 	add.w	r3, r3, #4
     9e8:	7b3a      	ldrb	r2, [r7, #12]
     9ea:	ea4f 2202 	mov.w	r2, r2, lsl #8
     9ee:	b291      	uxth	r1, r2
     9f0:	7b7a      	ldrb	r2, [r7, #13]
     9f2:	188a      	adds	r2, r1, r2
     9f4:	b292      	uxth	r2, r2
     9f6:	b292      	uxth	r2, r2
     9f8:	801a      	strh	r2, [r3, #0]
     9fa:	f04f 0300 	mov.w	r3, #0
     9fe:	e011      	b.n	a24 <readData+0xb0>
     a00:	687b      	ldr	r3, [r7, #4]
     a02:	f04f 0200 	mov.w	r2, #0
     a06:	801a      	strh	r2, [r3, #0]
     a08:	687b      	ldr	r3, [r7, #4]
     a0a:	f103 0302 	add.w	r3, r3, #2
     a0e:	f04f 0200 	mov.w	r2, #0
     a12:	801a      	strh	r2, [r3, #0]
     a14:	687b      	ldr	r3, [r7, #4]
     a16:	f103 0304 	add.w	r3, r3, #4
     a1a:	f04f 0200 	mov.w	r2, #0
     a1e:	801a      	strh	r2, [r3, #0]
     a20:	f04f 33ff 	mov.w	r3, #4294967295
     a24:	4618      	mov	r0, r3
     a26:	f107 0710 	add.w	r7, r7, #16
     a2a:	46bd      	mov	sp, r7
     a2c:	bd80      	pop	{r7, pc}
     a2e:	bf00      	nop

00000a30 <init_>:
     a30:	b480      	push	{r7}
     a32:	af00      	add	r7, sp, #0
     a34:	f240 03e0 	movw	r3, #224	; 0xe0
     a38:	f2c1 0300 	movt	r3, #4096	; 0x1000
     a3c:	f04f 025a 	mov.w	r2, #90	; 0x5a
     a40:	601a      	str	r2, [r3, #0]
     a42:	f240 03e0 	movw	r3, #224	; 0xe0
     a46:	f2c1 0300 	movt	r3, #4096	; 0x1000
     a4a:	f04f 0201 	mov.w	r2, #1
     a4e:	609a      	str	r2, [r3, #8]
     a50:	f240 03e0 	movw	r3, #224	; 0xe0
     a54:	f2c1 0300 	movt	r3, #4096	; 0x1000
     a58:	f04f 0200 	mov.w	r2, #0
     a5c:	611a      	str	r2, [r3, #16]
     a5e:	f240 03e0 	movw	r3, #224	; 0xe0
     a62:	f2c1 0300 	movt	r3, #4096	; 0x1000
     a66:	f04f 0200 	mov.w	r2, #0
     a6a:	615a      	str	r2, [r3, #20]
     a6c:	f240 03e0 	movw	r3, #224	; 0xe0
     a70:	f2c1 0300 	movt	r3, #4096	; 0x1000
     a74:	f04f 0201 	mov.w	r2, #1
     a78:	61da      	str	r2, [r3, #28]
     a7a:	f240 130c 	movw	r3, #268	; 0x10c
     a7e:	f2c1 0300 	movt	r3, #4096	; 0x1000
     a82:	f04f 025a 	mov.w	r2, #90	; 0x5a
     a86:	601a      	str	r2, [r3, #0]
     a88:	f240 130c 	movw	r3, #268	; 0x10c
     a8c:	f2c1 0300 	movt	r3, #4096	; 0x1000
     a90:	f04f 0201 	mov.w	r2, #1
     a94:	609a      	str	r2, [r3, #8]
     a96:	f240 130c 	movw	r3, #268	; 0x10c
     a9a:	f2c1 0300 	movt	r3, #4096	; 0x1000
     a9e:	f04f 0203 	mov.w	r2, #3
     aa2:	615a      	str	r2, [r3, #20]
     aa4:	f240 130c 	movw	r3, #268	; 0x10c
     aa8:	f2c1 0300 	movt	r3, #4096	; 0x1000
     aac:	f04f 0201 	mov.w	r2, #1
     ab0:	61da      	str	r2, [r3, #28]
     ab2:	46bd      	mov	sp, r7
     ab4:	bc80      	pop	{r7}
     ab6:	4770      	bx	lr

00000ab8 <set_on_>:
     ab8:	b480      	push	{r7}
     aba:	af00      	add	r7, sp, #0
     abc:	f04f 0300 	mov.w	r3, #0
     ac0:	4618      	mov	r0, r3
     ac2:	46bd      	mov	sp, r7
     ac4:	bc80      	pop	{r7}
     ac6:	4770      	bx	lr

00000ac8 <set_off_>:
     ac8:	b480      	push	{r7}
     aca:	af00      	add	r7, sp, #0
     acc:	f04f 0300 	mov.w	r3, #0
     ad0:	4618      	mov	r0, r3
     ad2:	46bd      	mov	sp, r7
     ad4:	bc80      	pop	{r7}
     ad6:	4770      	bx	lr

00000ad8 <set_range_>:
     ad8:	b480      	push	{r7}
     ada:	b083      	sub	sp, #12
     adc:	af00      	add	r7, sp, #0
     ade:	4602      	mov	r2, r0
     ae0:	460b      	mov	r3, r1
     ae2:	71fa      	strb	r2, [r7, #7]
     ae4:	71bb      	strb	r3, [r7, #6]
     ae6:	79fb      	ldrb	r3, [r7, #7]
     ae8:	2b02      	cmp	r3, #2
     aea:	d81b      	bhi.n	b24 <set_range_+0x4c>
     aec:	79f9      	ldrb	r1, [r7, #7]
     aee:	f644 7244 	movw	r2, #20292	; 0x4f44
     af2:	f2c0 0200 	movt	r2, #0
     af6:	460b      	mov	r3, r1
     af8:	ea4f 0383 	mov.w	r3, r3, lsl #2
     afc:	185b      	adds	r3, r3, r1
     afe:	ea4f 1303 	mov.w	r3, r3, lsl #4
     b02:	18d3      	adds	r3, r2, r3
     b04:	f103 0328 	add.w	r3, r3, #40	; 0x28
     b08:	791b      	ldrb	r3, [r3, #4]
     b0a:	79ba      	ldrb	r2, [r7, #6]
     b0c:	429a      	cmp	r2, r3
     b0e:	d209      	bcs.n	b24 <set_range_+0x4c>
     b10:	79fa      	ldrb	r2, [r7, #7]
     b12:	f240 1338 	movw	r3, #312	; 0x138
     b16:	f2c1 0300 	movt	r3, #4096	; 0x1000
     b1a:	79b9      	ldrb	r1, [r7, #6]
     b1c:	5499      	strb	r1, [r3, r2]
     b1e:	f04f 0300 	mov.w	r3, #0
     b22:	e001      	b.n	b28 <set_range_+0x50>
     b24:	f04f 0301 	mov.w	r3, #1
     b28:	4618      	mov	r0, r3
     b2a:	f107 070c 	add.w	r7, r7, #12
     b2e:	46bd      	mov	sp, r7
     b30:	bc80      	pop	{r7}
     b32:	4770      	bx	lr

00000b34 <get_measurement_>:
     b34:	b580      	push	{r7, lr}
     b36:	b084      	sub	sp, #16
     b38:	af00      	add	r7, sp, #0
     b3a:	4603      	mov	r3, r0
     b3c:	71fb      	strb	r3, [r7, #7]
     b3e:	f04f 0300 	mov.w	r3, #0
     b42:	81fb      	strh	r3, [r7, #14]
     b44:	79fb      	ldrb	r3, [r7, #7]
     b46:	2b02      	cmp	r3, #2
     b48:	d833      	bhi.n	bb2 <get_measurement_+0x7e>
     b4a:	79fb      	ldrb	r3, [r7, #7]
     b4c:	2b01      	cmp	r3, #1
     b4e:	d00a      	beq.n	b66 <get_measurement_+0x32>
     b50:	2b02      	cmp	r3, #2
     b52:	d00f      	beq.n	b74 <get_measurement_+0x40>
     b54:	2b00      	cmp	r3, #0
     b56:	d114      	bne.n	b82 <get_measurement_+0x4e>
     b58:	f04f 0006 	mov.w	r0, #6
     b5c:	f000 f834 	bl	bc8 <readRAM>
     b60:	4603      	mov	r3, r0
     b62:	81fb      	strh	r3, [r7, #14]
     b64:	e00d      	b.n	b82 <get_measurement_+0x4e>
     b66:	f04f 0007 	mov.w	r0, #7
     b6a:	f000 f82d 	bl	bc8 <readRAM>
     b6e:	4603      	mov	r3, r0
     b70:	81fb      	strh	r3, [r7, #14]
     b72:	e006      	b.n	b82 <get_measurement_+0x4e>
     b74:	f04f 0008 	mov.w	r0, #8
     b78:	f000 f826 	bl	bc8 <readRAM>
     b7c:	4603      	mov	r3, r0
     b7e:	81fb      	strh	r3, [r7, #14]
     b80:	bf00      	nop
     b82:	89fb      	ldrh	r3, [r7, #14]
     b84:	4618      	mov	r0, r3
     b86:	f003 ffa5 	bl	4ad4 <__aeabi_ui2f>
     b8a:	4603      	mov	r3, r0
     b8c:	4618      	mov	r0, r3
     b8e:	490c      	ldr	r1, [pc, #48]	; (bc0 <get_measurement_+0x8c>)
     b90:	f003 fe5c 	bl	484c <__aeabi_fdiv>
     b94:	4603      	mov	r3, r0
     b96:	4618      	mov	r0, r3
     b98:	490a      	ldr	r1, [pc, #40]	; (bc4 <get_measurement_+0x90>)
     b9a:	f003 feb9 	bl	4910 <__aeabi_fsub>
     b9e:	4603      	mov	r3, r0
     ba0:	461a      	mov	r2, r3
     ba2:	f240 03dc 	movw	r3, #220	; 0xdc
     ba6:	f2c1 0300 	movt	r3, #4096	; 0x1000
     baa:	601a      	str	r2, [r3, #0]
     bac:	f04f 0300 	mov.w	r3, #0
     bb0:	e001      	b.n	bb6 <get_measurement_+0x82>
     bb2:	f04f 03ff 	mov.w	r3, #255	; 0xff
     bb6:	4618      	mov	r0, r3
     bb8:	f107 0710 	add.w	r7, r7, #16
     bbc:	46bd      	mov	sp, r7
     bbe:	bd80      	pop	{r7, pc}
     bc0:	42480000 	.word	0x42480000
     bc4:	43889333 	.word	0x43889333

00000bc8 <readRAM>:
     bc8:	b580      	push	{r7, lr}
     bca:	b084      	sub	sp, #16
     bcc:	af00      	add	r7, sp, #0
     bce:	4603      	mov	r3, r0
     bd0:	71fb      	strb	r3, [r7, #7]
     bd2:	79fb      	ldrb	r3, [r7, #7]
     bd4:	f003 031f 	and.w	r3, r3, #31
     bd8:	b2db      	uxtb	r3, r3
     bda:	72fb      	strb	r3, [r7, #11]
     bdc:	f240 130c 	movw	r3, #268	; 0x10c
     be0:	f2c1 0300 	movt	r3, #4096	; 0x1000
     be4:	f107 020b 	add.w	r2, r7, #11
     be8:	605a      	str	r2, [r3, #4]
     bea:	f240 130c 	movw	r3, #268	; 0x10c
     bee:	f2c1 0300 	movt	r3, #4096	; 0x1000
     bf2:	f107 020c 	add.w	r2, r7, #12
     bf6:	611a      	str	r2, [r3, #16]
     bf8:	f44f 4040 	mov.w	r0, #49152	; 0xc000
     bfc:	f2c4 0001 	movt	r0, #16385	; 0x4001
     c00:	f240 110c 	movw	r1, #268	; 0x10c
     c04:	f2c1 0100 	movt	r1, #4096	; 0x1000
     c08:	f04f 0200 	mov.w	r2, #0
     c0c:	f002 fbfe 	bl	340c <I2C_MasterTransferData>
     c10:	4603      	mov	r3, r0
     c12:	2b01      	cmp	r3, #1
     c14:	d107      	bne.n	c26 <readRAM+0x5e>
     c16:	7b7b      	ldrb	r3, [r7, #13]
     c18:	ea4f 2303 	mov.w	r3, r3, lsl #8
     c1c:	b29a      	uxth	r2, r3
     c1e:	7b3b      	ldrb	r3, [r7, #12]
     c20:	18d3      	adds	r3, r2, r3
     c22:	b29b      	uxth	r3, r3
     c24:	e001      	b.n	c2a <readRAM+0x62>
     c26:	f04f 0300 	mov.w	r3, #0
     c2a:	4618      	mov	r0, r3
     c2c:	f107 0710 	add.w	r7, r7, #16
     c30:	46bd      	mov	sp, r7
     c32:	bd80      	pop	{r7, pc}

00000c34 <init_>:
     c34:	b580      	push	{r7, lr}
     c36:	af00      	add	r7, sp, #0
     c38:	f240 1348 	movw	r3, #328	; 0x148
     c3c:	f2c1 0300 	movt	r3, #4096	; 0x1000
     c40:	f04f 0268 	mov.w	r2, #104	; 0x68
     c44:	601a      	str	r2, [r3, #0]
     c46:	f240 1348 	movw	r3, #328	; 0x148
     c4a:	f2c1 0300 	movt	r3, #4096	; 0x1000
     c4e:	f04f 0200 	mov.w	r2, #0
     c52:	611a      	str	r2, [r3, #16]
     c54:	f240 1348 	movw	r3, #328	; 0x148
     c58:	f2c1 0300 	movt	r3, #4096	; 0x1000
     c5c:	f04f 0200 	mov.w	r2, #0
     c60:	615a      	str	r2, [r3, #20]
     c62:	f240 1348 	movw	r3, #328	; 0x148
     c66:	f2c1 0300 	movt	r3, #4096	; 0x1000
     c6a:	f04f 0203 	mov.w	r2, #3
     c6e:	61da      	str	r2, [r3, #28]
     c70:	f240 1374 	movw	r3, #372	; 0x174
     c74:	f2c1 0300 	movt	r3, #4096	; 0x1000
     c78:	f04f 0268 	mov.w	r2, #104	; 0x68
     c7c:	601a      	str	r2, [r3, #0]
     c7e:	f240 1374 	movw	r3, #372	; 0x174
     c82:	f2c1 0300 	movt	r3, #4096	; 0x1000
     c86:	f04f 0203 	mov.w	r2, #3
     c8a:	61da      	str	r2, [r3, #28]
     c8c:	f04f 006b 	mov.w	r0, #107	; 0x6b
     c90:	f04f 0101 	mov.w	r1, #1
     c94:	f000 f956 	bl	f44 <writeReg>
     c98:	f04f 006a 	mov.w	r0, #106	; 0x6a
     c9c:	f04f 0100 	mov.w	r1, #0
     ca0:	f000 f950 	bl	f44 <writeReg>
     ca4:	f04f 0037 	mov.w	r0, #55	; 0x37
     ca8:	f04f 0102 	mov.w	r1, #2
     cac:	f000 f94a 	bl	f44 <writeReg>
     cb0:	bd80      	pop	{r7, pc}
     cb2:	bf00      	nop

00000cb4 <set_on_>:
     cb4:	b580      	push	{r7, lr}
     cb6:	af00      	add	r7, sp, #0
     cb8:	f04f 006b 	mov.w	r0, #107	; 0x6b
     cbc:	f04f 0101 	mov.w	r1, #1
     cc0:	f000 f940 	bl	f44 <writeReg>
     cc4:	4603      	mov	r3, r0
     cc6:	b2db      	uxtb	r3, r3
     cc8:	4618      	mov	r0, r3
     cca:	bd80      	pop	{r7, pc}

00000ccc <set_off_>:
     ccc:	b580      	push	{r7, lr}
     cce:	af00      	add	r7, sp, #0
     cd0:	f04f 006b 	mov.w	r0, #107	; 0x6b
     cd4:	f04f 0141 	mov.w	r1, #65	; 0x41
     cd8:	f000 f934 	bl	f44 <writeReg>
     cdc:	4603      	mov	r3, r0
     cde:	b2db      	uxtb	r3, r3
     ce0:	4618      	mov	r0, r3
     ce2:	bd80      	pop	{r7, pc}

00000ce4 <set_range_>:
     ce4:	b480      	push	{r7}
     ce6:	b083      	sub	sp, #12
     ce8:	af00      	add	r7, sp, #0
     cea:	4602      	mov	r2, r0
     cec:	460b      	mov	r3, r1
     cee:	71fa      	strb	r2, [r7, #7]
     cf0:	71bb      	strb	r3, [r7, #6]
     cf2:	79fb      	ldrb	r3, [r7, #7]
     cf4:	2b02      	cmp	r3, #2
     cf6:	d81b      	bhi.n	d30 <set_range_+0x4c>
     cf8:	79f9      	ldrb	r1, [r7, #7]
     cfa:	f245 02b0 	movw	r2, #20656	; 0x50b0
     cfe:	f2c0 0200 	movt	r2, #0
     d02:	460b      	mov	r3, r1
     d04:	ea4f 0383 	mov.w	r3, r3, lsl #2
     d08:	185b      	adds	r3, r3, r1
     d0a:	ea4f 1303 	mov.w	r3, r3, lsl #4
     d0e:	18d3      	adds	r3, r2, r3
     d10:	f103 0328 	add.w	r3, r3, #40	; 0x28
     d14:	791b      	ldrb	r3, [r3, #4]
     d16:	79ba      	ldrb	r2, [r7, #6]
     d18:	429a      	cmp	r2, r3
     d1a:	d209      	bcs.n	d30 <set_range_+0x4c>
     d1c:	79fa      	ldrb	r2, [r7, #7]
     d1e:	f240 13a0 	movw	r3, #416	; 0x1a0
     d22:	f2c1 0300 	movt	r3, #4096	; 0x1000
     d26:	79b9      	ldrb	r1, [r7, #6]
     d28:	5499      	strb	r1, [r3, r2]
     d2a:	f04f 0300 	mov.w	r3, #0
     d2e:	e001      	b.n	d34 <set_range_+0x50>
     d30:	f04f 0301 	mov.w	r3, #1
     d34:	4618      	mov	r0, r3
     d36:	f107 070c 	add.w	r7, r7, #12
     d3a:	46bd      	mov	sp, r7
     d3c:	bc80      	pop	{r7}
     d3e:	4770      	bx	lr

00000d40 <get_measurement_>:
     d40:	b580      	push	{r7, lr}
     d42:	b084      	sub	sp, #16
     d44:	af00      	add	r7, sp, #0
     d46:	4603      	mov	r3, r0
     d48:	71fb      	strb	r3, [r7, #7]
     d4a:	79fb      	ldrb	r3, [r7, #7]
     d4c:	2b02      	cmp	r3, #2
     d4e:	f200 809f 	bhi.w	e90 <get_measurement_+0x150>
     d52:	79fb      	ldrb	r3, [r7, #7]
     d54:	2b01      	cmp	r3, #1
     d56:	d04a      	beq.n	dee <get_measurement_+0xae>
     d58:	2b02      	cmp	r3, #2
     d5a:	f000 808d 	beq.w	e78 <get_measurement_+0x138>
     d5e:	2b00      	cmp	r3, #0
     d60:	f040 8093 	bne.w	e8a <get_measurement_+0x14a>
     d64:	f107 0308 	add.w	r3, r7, #8
     d68:	4618      	mov	r0, r3
     d6a:	f000 f89d 	bl	ea8 <getAcceleration>
     d6e:	893b      	ldrh	r3, [r7, #8]
     d70:	b21b      	sxth	r3, r3
     d72:	4618      	mov	r0, r3
     d74:	f001 fc38 	bl	25e8 <swap_int16>
     d78:	4603      	mov	r3, r0
     d7a:	4618      	mov	r0, r3
     d7c:	f003 fea2 	bl	4ac4 <__aeabi_i2f>
     d80:	4603      	mov	r3, r0
     d82:	4618      	mov	r0, r3
     d84:	4946      	ldr	r1, [pc, #280]	; (ea0 <get_measurement_+0x160>)
     d86:	f003 fd61 	bl	484c <__aeabi_fdiv>
     d8a:	4603      	mov	r3, r0
     d8c:	461a      	mov	r2, r3
     d8e:	f240 133c 	movw	r3, #316	; 0x13c
     d92:	f2c1 0300 	movt	r3, #4096	; 0x1000
     d96:	601a      	str	r2, [r3, #0]
     d98:	897b      	ldrh	r3, [r7, #10]
     d9a:	b21b      	sxth	r3, r3
     d9c:	4618      	mov	r0, r3
     d9e:	f001 fc23 	bl	25e8 <swap_int16>
     da2:	4603      	mov	r3, r0
     da4:	4618      	mov	r0, r3
     da6:	f003 fe8d 	bl	4ac4 <__aeabi_i2f>
     daa:	4603      	mov	r3, r0
     dac:	4618      	mov	r0, r3
     dae:	493c      	ldr	r1, [pc, #240]	; (ea0 <get_measurement_+0x160>)
     db0:	f003 fd4c 	bl	484c <__aeabi_fdiv>
     db4:	4603      	mov	r3, r0
     db6:	461a      	mov	r2, r3
     db8:	f240 133c 	movw	r3, #316	; 0x13c
     dbc:	f2c1 0300 	movt	r3, #4096	; 0x1000
     dc0:	605a      	str	r2, [r3, #4]
     dc2:	89bb      	ldrh	r3, [r7, #12]
     dc4:	b21b      	sxth	r3, r3
     dc6:	4618      	mov	r0, r3
     dc8:	f001 fc0e 	bl	25e8 <swap_int16>
     dcc:	4603      	mov	r3, r0
     dce:	4618      	mov	r0, r3
     dd0:	f003 fe78 	bl	4ac4 <__aeabi_i2f>
     dd4:	4603      	mov	r3, r0
     dd6:	4618      	mov	r0, r3
     dd8:	4931      	ldr	r1, [pc, #196]	; (ea0 <get_measurement_+0x160>)
     dda:	f003 fd37 	bl	484c <__aeabi_fdiv>
     dde:	4603      	mov	r3, r0
     de0:	461a      	mov	r2, r3
     de2:	f240 133c 	movw	r3, #316	; 0x13c
     de6:	f2c1 0300 	movt	r3, #4096	; 0x1000
     dea:	609a      	str	r2, [r3, #8]
     dec:	e04d      	b.n	e8a <get_measurement_+0x14a>
     dee:	f107 0308 	add.w	r3, r7, #8
     df2:	4618      	mov	r0, r3
     df4:	f000 f86a 	bl	ecc <getAngularRate>
     df8:	893b      	ldrh	r3, [r7, #8]
     dfa:	b21b      	sxth	r3, r3
     dfc:	4618      	mov	r0, r3
     dfe:	f001 fbf3 	bl	25e8 <swap_int16>
     e02:	4603      	mov	r3, r0
     e04:	4618      	mov	r0, r3
     e06:	f003 fe5d 	bl	4ac4 <__aeabi_i2f>
     e0a:	4603      	mov	r3, r0
     e0c:	4618      	mov	r0, r3
     e0e:	4925      	ldr	r1, [pc, #148]	; (ea4 <get_measurement_+0x164>)
     e10:	f003 fd1c 	bl	484c <__aeabi_fdiv>
     e14:	4603      	mov	r3, r0
     e16:	461a      	mov	r2, r3
     e18:	f240 133c 	movw	r3, #316	; 0x13c
     e1c:	f2c1 0300 	movt	r3, #4096	; 0x1000
     e20:	601a      	str	r2, [r3, #0]
     e22:	897b      	ldrh	r3, [r7, #10]
     e24:	b21b      	sxth	r3, r3
     e26:	4618      	mov	r0, r3
     e28:	f001 fbde 	bl	25e8 <swap_int16>
     e2c:	4603      	mov	r3, r0
     e2e:	4618      	mov	r0, r3
     e30:	f003 fe48 	bl	4ac4 <__aeabi_i2f>
     e34:	4603      	mov	r3, r0
     e36:	4618      	mov	r0, r3
     e38:	491a      	ldr	r1, [pc, #104]	; (ea4 <get_measurement_+0x164>)
     e3a:	f003 fd07 	bl	484c <__aeabi_fdiv>
     e3e:	4603      	mov	r3, r0
     e40:	461a      	mov	r2, r3
     e42:	f240 133c 	movw	r3, #316	; 0x13c
     e46:	f2c1 0300 	movt	r3, #4096	; 0x1000
     e4a:	605a      	str	r2, [r3, #4]
     e4c:	89bb      	ldrh	r3, [r7, #12]
     e4e:	b21b      	sxth	r3, r3
     e50:	4618      	mov	r0, r3
     e52:	f001 fbc9 	bl	25e8 <swap_int16>
     e56:	4603      	mov	r3, r0
     e58:	4618      	mov	r0, r3
     e5a:	f003 fe33 	bl	4ac4 <__aeabi_i2f>
     e5e:	4603      	mov	r3, r0
     e60:	4618      	mov	r0, r3
     e62:	4910      	ldr	r1, [pc, #64]	; (ea4 <get_measurement_+0x164>)
     e64:	f003 fcf2 	bl	484c <__aeabi_fdiv>
     e68:	4603      	mov	r3, r0
     e6a:	461a      	mov	r2, r3
     e6c:	f240 133c 	movw	r3, #316	; 0x13c
     e70:	f2c1 0300 	movt	r3, #4096	; 0x1000
     e74:	609a      	str	r2, [r3, #8]
     e76:	e008      	b.n	e8a <get_measurement_+0x14a>
     e78:	f000 f83a 	bl	ef0 <getTemperature>
     e7c:	4602      	mov	r2, r0
     e7e:	f240 133c 	movw	r3, #316	; 0x13c
     e82:	f2c1 0300 	movt	r3, #4096	; 0x1000
     e86:	601a      	str	r2, [r3, #0]
     e88:	bf00      	nop
     e8a:	f04f 0300 	mov.w	r3, #0
     e8e:	e001      	b.n	e94 <get_measurement_+0x154>
     e90:	f04f 03ff 	mov.w	r3, #255	; 0xff
     e94:	4618      	mov	r0, r3
     e96:	f107 0710 	add.w	r7, r7, #16
     e9a:	46bd      	mov	sp, r7
     e9c:	bd80      	pop	{r7, pc}
     e9e:	bf00      	nop
     ea0:	46800000 	.word	0x46800000
     ea4:	43030000 	.word	0x43030000

00000ea8 <getAcceleration>:
     ea8:	b580      	push	{r7, lr}
     eaa:	b082      	sub	sp, #8
     eac:	af00      	add	r7, sp, #0
     eae:	6078      	str	r0, [r7, #4]
     eb0:	f04f 003b 	mov.w	r0, #59	; 0x3b
     eb4:	6879      	ldr	r1, [r7, #4]
     eb6:	f04f 0206 	mov.w	r2, #6
     eba:	f000 f875 	bl	fa8 <readBurst>
     ebe:	4603      	mov	r3, r0
     ec0:	4618      	mov	r0, r3
     ec2:	f107 0708 	add.w	r7, r7, #8
     ec6:	46bd      	mov	sp, r7
     ec8:	bd80      	pop	{r7, pc}
     eca:	bf00      	nop

00000ecc <getAngularRate>:
     ecc:	b580      	push	{r7, lr}
     ece:	b082      	sub	sp, #8
     ed0:	af00      	add	r7, sp, #0
     ed2:	6078      	str	r0, [r7, #4]
     ed4:	f04f 0043 	mov.w	r0, #67	; 0x43
     ed8:	6879      	ldr	r1, [r7, #4]
     eda:	f04f 0206 	mov.w	r2, #6
     ede:	f000 f863 	bl	fa8 <readBurst>
     ee2:	4603      	mov	r3, r0
     ee4:	4618      	mov	r0, r3
     ee6:	f107 0708 	add.w	r7, r7, #8
     eea:	46bd      	mov	sp, r7
     eec:	bd80      	pop	{r7, pc}
     eee:	bf00      	nop

00000ef0 <getTemperature>:
     ef0:	b580      	push	{r7, lr}
     ef2:	b082      	sub	sp, #8
     ef4:	af00      	add	r7, sp, #0
     ef6:	f107 0306 	add.w	r3, r7, #6
     efa:	f04f 0041 	mov.w	r0, #65	; 0x41
     efe:	4619      	mov	r1, r3
     f00:	f04f 0202 	mov.w	r2, #2
     f04:	f000 f850 	bl	fa8 <readBurst>
     f08:	88fb      	ldrh	r3, [r7, #6]
     f0a:	b21b      	sxth	r3, r3
     f0c:	4618      	mov	r0, r3
     f0e:	f001 fb6b 	bl	25e8 <swap_int16>
     f12:	4603      	mov	r3, r0
     f14:	4618      	mov	r0, r3
     f16:	f003 fdd5 	bl	4ac4 <__aeabi_i2f>
     f1a:	4603      	mov	r3, r0
     f1c:	4618      	mov	r0, r3
     f1e:	4907      	ldr	r1, [pc, #28]	; (f3c <getTemperature+0x4c>)
     f20:	f003 fc94 	bl	484c <__aeabi_fdiv>
     f24:	4603      	mov	r3, r0
     f26:	4618      	mov	r0, r3
     f28:	4905      	ldr	r1, [pc, #20]	; (f40 <getTemperature+0x50>)
     f2a:	f003 fd65 	bl	49f8 <__aeabi_fadd>
     f2e:	4603      	mov	r3, r0
     f30:	4618      	mov	r0, r3
     f32:	f107 0708 	add.w	r7, r7, #8
     f36:	46bd      	mov	sp, r7
     f38:	bd80      	pop	{r7, pc}
     f3a:	bf00      	nop
     f3c:	43aa0000 	.word	0x43aa0000
     f40:	42121eb8 	.word	0x42121eb8

00000f44 <writeReg>:
     f44:	b580      	push	{r7, lr}
     f46:	b084      	sub	sp, #16
     f48:	af00      	add	r7, sp, #0
     f4a:	4602      	mov	r2, r0
     f4c:	460b      	mov	r3, r1
     f4e:	71fa      	strb	r2, [r7, #7]
     f50:	71bb      	strb	r3, [r7, #6]
     f52:	79fb      	ldrb	r3, [r7, #7]
     f54:	733b      	strb	r3, [r7, #12]
     f56:	79bb      	ldrb	r3, [r7, #6]
     f58:	737b      	strb	r3, [r7, #13]
     f5a:	f240 1348 	movw	r3, #328	; 0x148
     f5e:	f2c1 0300 	movt	r3, #4096	; 0x1000
     f62:	f04f 0202 	mov.w	r2, #2
     f66:	609a      	str	r2, [r3, #8]
     f68:	f240 1348 	movw	r3, #328	; 0x148
     f6c:	f2c1 0300 	movt	r3, #4096	; 0x1000
     f70:	f107 020c 	add.w	r2, r7, #12
     f74:	605a      	str	r2, [r3, #4]
     f76:	f44f 4040 	mov.w	r0, #49152	; 0xc000
     f7a:	f2c4 0001 	movt	r0, #16385	; 0x4001
     f7e:	f240 1148 	movw	r1, #328	; 0x148
     f82:	f2c1 0100 	movt	r1, #4096	; 0x1000
     f86:	f04f 0200 	mov.w	r2, #0
     f8a:	f002 fa3f 	bl	340c <I2C_MasterTransferData>
     f8e:	4603      	mov	r3, r0
     f90:	2b01      	cmp	r3, #1
     f92:	d102      	bne.n	f9a <writeReg+0x56>
     f94:	f04f 0300 	mov.w	r3, #0
     f98:	e001      	b.n	f9e <writeReg+0x5a>
     f9a:	f04f 33ff 	mov.w	r3, #4294967295
     f9e:	4618      	mov	r0, r3
     fa0:	f107 0710 	add.w	r7, r7, #16
     fa4:	46bd      	mov	sp, r7
     fa6:	bd80      	pop	{r7, pc}

00000fa8 <readBurst>:
     fa8:	b580      	push	{r7, lr}
     faa:	b082      	sub	sp, #8
     fac:	af00      	add	r7, sp, #0
     fae:	6039      	str	r1, [r7, #0]
     fb0:	4613      	mov	r3, r2
     fb2:	4602      	mov	r2, r0
     fb4:	71fa      	strb	r2, [r7, #7]
     fb6:	71bb      	strb	r3, [r7, #6]
     fb8:	f240 1374 	movw	r3, #372	; 0x174
     fbc:	f2c1 0300 	movt	r3, #4096	; 0x1000
     fc0:	f04f 0201 	mov.w	r2, #1
     fc4:	609a      	str	r2, [r3, #8]
     fc6:	f240 1374 	movw	r3, #372	; 0x174
     fca:	f2c1 0300 	movt	r3, #4096	; 0x1000
     fce:	f107 0207 	add.w	r2, r7, #7
     fd2:	605a      	str	r2, [r3, #4]
     fd4:	79ba      	ldrb	r2, [r7, #6]
     fd6:	f240 1374 	movw	r3, #372	; 0x174
     fda:	f2c1 0300 	movt	r3, #4096	; 0x1000
     fde:	615a      	str	r2, [r3, #20]
     fe0:	f240 1374 	movw	r3, #372	; 0x174
     fe4:	f2c1 0300 	movt	r3, #4096	; 0x1000
     fe8:	683a      	ldr	r2, [r7, #0]
     fea:	611a      	str	r2, [r3, #16]
     fec:	f44f 4040 	mov.w	r0, #49152	; 0xc000
     ff0:	f2c4 0001 	movt	r0, #16385	; 0x4001
     ff4:	f240 1174 	movw	r1, #372	; 0x174
     ff8:	f2c1 0100 	movt	r1, #4096	; 0x1000
     ffc:	f04f 0200 	mov.w	r2, #0
    1000:	f002 fa04 	bl	340c <I2C_MasterTransferData>
    1004:	4603      	mov	r3, r0
    1006:	2b01      	cmp	r3, #1
    1008:	d102      	bne.n	1010 <readBurst+0x68>
    100a:	f04f 0300 	mov.w	r3, #0
    100e:	e001      	b.n	1014 <readBurst+0x6c>
    1010:	f04f 33ff 	mov.w	r3, #4294967295
    1014:	4618      	mov	r0, r3
    1016:	f107 0708 	add.w	r7, r7, #8
    101a:	46bd      	mov	sp, r7
    101c:	bd80      	pop	{r7, pc}
    101e:	bf00      	nop

00001020 <init_>:
    1020:	b580      	push	{r7, lr}
    1022:	af00      	add	r7, sp, #0
    1024:	f240 13a8 	movw	r3, #424	; 0x1a8
    1028:	f2c1 0300 	movt	r3, #4096	; 0x1000
    102c:	f04f 0277 	mov.w	r2, #119	; 0x77
    1030:	601a      	str	r2, [r3, #0]
    1032:	f240 13a8 	movw	r3, #424	; 0x1a8
    1036:	f2c1 0300 	movt	r3, #4096	; 0x1000
    103a:	f04f 0201 	mov.w	r2, #1
    103e:	609a      	str	r2, [r3, #8]
    1040:	f240 13a8 	movw	r3, #424	; 0x1a8
    1044:	f2c1 0300 	movt	r3, #4096	; 0x1000
    1048:	f04f 0200 	mov.w	r2, #0
    104c:	611a      	str	r2, [r3, #16]
    104e:	f240 13a8 	movw	r3, #424	; 0x1a8
    1052:	f2c1 0300 	movt	r3, #4096	; 0x1000
    1056:	f04f 0200 	mov.w	r2, #0
    105a:	615a      	str	r2, [r3, #20]
    105c:	f240 13a8 	movw	r3, #424	; 0x1a8
    1060:	f2c1 0300 	movt	r3, #4096	; 0x1000
    1064:	f04f 0203 	mov.w	r2, #3
    1068:	61da      	str	r2, [r3, #28]
    106a:	f240 13d4 	movw	r3, #468	; 0x1d4
    106e:	f2c1 0300 	movt	r3, #4096	; 0x1000
    1072:	f04f 0277 	mov.w	r2, #119	; 0x77
    1076:	601a      	str	r2, [r3, #0]
    1078:	f240 13d4 	movw	r3, #468	; 0x1d4
    107c:	f2c1 0300 	movt	r3, #4096	; 0x1000
    1080:	f04f 0200 	mov.w	r2, #0
    1084:	605a      	str	r2, [r3, #4]
    1086:	f240 13d4 	movw	r3, #468	; 0x1d4
    108a:	f2c1 0300 	movt	r3, #4096	; 0x1000
    108e:	f04f 0200 	mov.w	r2, #0
    1092:	609a      	str	r2, [r3, #8]
    1094:	f240 13d4 	movw	r3, #468	; 0x1d4
    1098:	f2c1 0300 	movt	r3, #4096	; 0x1000
    109c:	f04f 0202 	mov.w	r2, #2
    10a0:	615a      	str	r2, [r3, #20]
    10a2:	f240 13d4 	movw	r3, #468	; 0x1d4
    10a6:	f2c1 0300 	movt	r3, #4096	; 0x1000
    10aa:	f04f 0203 	mov.w	r2, #3
    10ae:	61da      	str	r2, [r3, #28]
    10b0:	f240 230c 	movw	r3, #524	; 0x20c
    10b4:	f2c1 0300 	movt	r3, #4096	; 0x1000
    10b8:	f04f 0203 	mov.w	r2, #3
    10bc:	701a      	strb	r2, [r3, #0]
    10be:	f240 230c 	movw	r3, #524	; 0x20c
    10c2:	f2c1 0300 	movt	r3, #4096	; 0x1000
    10c6:	f04f 0204 	mov.w	r2, #4
    10ca:	705a      	strb	r2, [r3, #1]
    10cc:	f04f 001e 	mov.w	r0, #30
    10d0:	f000 f8b4 	bl	123c <sendCmd>
    10d4:	f04f 0003 	mov.w	r0, #3
    10d8:	f001 fd14 	bl	2b04 <delay_ms>
    10dc:	f000 f918 	bl	1310 <readCalibration>
    10e0:	bd80      	pop	{r7, pc}
    10e2:	bf00      	nop

000010e4 <set_on_>:
    10e4:	b480      	push	{r7}
    10e6:	af00      	add	r7, sp, #0
    10e8:	f04f 0300 	mov.w	r3, #0
    10ec:	4618      	mov	r0, r3
    10ee:	46bd      	mov	sp, r7
    10f0:	bc80      	pop	{r7}
    10f2:	4770      	bx	lr

000010f4 <set_off_>:
    10f4:	b480      	push	{r7}
    10f6:	af00      	add	r7, sp, #0
    10f8:	f04f 0300 	mov.w	r3, #0
    10fc:	4618      	mov	r0, r3
    10fe:	46bd      	mov	sp, r7
    1100:	bc80      	pop	{r7}
    1102:	4770      	bx	lr

00001104 <set_range_>:
    1104:	b480      	push	{r7}
    1106:	b083      	sub	sp, #12
    1108:	af00      	add	r7, sp, #0
    110a:	4602      	mov	r2, r0
    110c:	460b      	mov	r3, r1
    110e:	71fa      	strb	r2, [r7, #7]
    1110:	71bb      	strb	r3, [r7, #6]
    1112:	79fb      	ldrb	r3, [r7, #7]
    1114:	2b01      	cmp	r3, #1
    1116:	d81b      	bhi.n	1150 <set_range_+0x4c>
    1118:	79f9      	ldrb	r1, [r7, #7]
    111a:	f245 220c 	movw	r2, #21004	; 0x520c
    111e:	f2c0 0200 	movt	r2, #0
    1122:	460b      	mov	r3, r1
    1124:	ea4f 0383 	mov.w	r3, r3, lsl #2
    1128:	185b      	adds	r3, r3, r1
    112a:	ea4f 1303 	mov.w	r3, r3, lsl #4
    112e:	18d3      	adds	r3, r2, r3
    1130:	f103 0328 	add.w	r3, r3, #40	; 0x28
    1134:	791b      	ldrb	r3, [r3, #4]
    1136:	79ba      	ldrb	r2, [r7, #6]
    1138:	429a      	cmp	r2, r3
    113a:	d209      	bcs.n	1150 <set_range_+0x4c>
    113c:	79fa      	ldrb	r2, [r7, #7]
    113e:	f240 230c 	movw	r3, #524	; 0x20c
    1142:	f2c1 0300 	movt	r3, #4096	; 0x1000
    1146:	79b9      	ldrb	r1, [r7, #6]
    1148:	5499      	strb	r1, [r3, r2]
    114a:	f04f 0300 	mov.w	r3, #0
    114e:	e001      	b.n	1154 <set_range_+0x50>
    1150:	f04f 0301 	mov.w	r3, #1
    1154:	4618      	mov	r0, r3
    1156:	f107 070c 	add.w	r7, r7, #12
    115a:	46bd      	mov	sp, r7
    115c:	bc80      	pop	{r7}
    115e:	4770      	bx	lr

00001160 <get_measurement_>:
    1160:	b580      	push	{r7, lr}
    1162:	b084      	sub	sp, #16
    1164:	af00      	add	r7, sp, #0
    1166:	4603      	mov	r3, r0
    1168:	71fb      	strb	r3, [r7, #7]
    116a:	79fb      	ldrb	r3, [r7, #7]
    116c:	2b01      	cmp	r3, #1
    116e:	d85c      	bhi.n	122a <get_measurement_+0xca>
    1170:	79fb      	ldrb	r3, [r7, #7]
    1172:	2b00      	cmp	r3, #0
    1174:	d002      	beq.n	117c <get_measurement_+0x1c>
    1176:	2b01      	cmp	r3, #1
    1178:	d018      	beq.n	11ac <get_measurement_+0x4c>
    117a:	e02f      	b.n	11dc <get_measurement_+0x7c>
    117c:	f04f 0048 	mov.w	r0, #72	; 0x48
    1180:	f000 f85c 	bl	123c <sendCmd>
    1184:	f04f 000a 	mov.w	r0, #10
    1188:	f001 fcbc 	bl	2b04 <delay_ms>
    118c:	f04f 0000 	mov.w	r0, #0
    1190:	f000 f854 	bl	123c <sendCmd>
    1194:	f240 13d4 	movw	r3, #468	; 0x1d4
    1198:	f2c1 0300 	movt	r3, #4096	; 0x1000
    119c:	f04f 0203 	mov.w	r2, #3
    11a0:	615a      	str	r2, [r3, #20]
    11a2:	f107 030c 	add.w	r3, r7, #12
    11a6:	4618      	mov	r0, r3
    11a8:	f000 f86e 	bl	1288 <readData>
    11ac:	f04f 0058 	mov.w	r0, #88	; 0x58
    11b0:	f000 f844 	bl	123c <sendCmd>
    11b4:	f04f 000a 	mov.w	r0, #10
    11b8:	f001 fca4 	bl	2b04 <delay_ms>
    11bc:	f04f 0000 	mov.w	r0, #0
    11c0:	f000 f83c 	bl	123c <sendCmd>
    11c4:	f240 13d4 	movw	r3, #468	; 0x1d4
    11c8:	f2c1 0300 	movt	r3, #4096	; 0x1000
    11cc:	f04f 0203 	mov.w	r2, #3
    11d0:	615a      	str	r2, [r3, #20]
    11d2:	f107 0308 	add.w	r3, r7, #8
    11d6:	4618      	mov	r0, r3
    11d8:	f000 f856 	bl	1288 <readData>
    11dc:	79fb      	ldrb	r3, [r7, #7]
    11de:	2b00      	cmp	r3, #0
    11e0:	d10c      	bne.n	11fc <get_measurement_+0x9c>
    11e2:	68fa      	ldr	r2, [r7, #12]
    11e4:	68bb      	ldr	r3, [r7, #8]
    11e6:	4610      	mov	r0, r2
    11e8:	4619      	mov	r1, r3
    11ea:	f000 f8d7 	bl	139c <calcPressure>
    11ee:	4602      	mov	r2, r0
    11f0:	f240 13a4 	movw	r3, #420	; 0x1a4
    11f4:	f2c1 0300 	movt	r3, #4096	; 0x1000
    11f8:	601a      	str	r2, [r3, #0]
    11fa:	e013      	b.n	1224 <get_measurement_+0xc4>
    11fc:	68bb      	ldr	r3, [r7, #8]
    11fe:	4618      	mov	r0, r3
    1200:	f000 f986 	bl	1510 <calcTemperature>
    1204:	4603      	mov	r3, r0
    1206:	4618      	mov	r0, r3
    1208:	f003 fc5c 	bl	4ac4 <__aeabi_i2f>
    120c:	4603      	mov	r3, r0
    120e:	4618      	mov	r0, r3
    1210:	4909      	ldr	r1, [pc, #36]	; (1238 <get_measurement_+0xd8>)
    1212:	f003 fb1b 	bl	484c <__aeabi_fdiv>
    1216:	4603      	mov	r3, r0
    1218:	461a      	mov	r2, r3
    121a:	f240 13a4 	movw	r3, #420	; 0x1a4
    121e:	f2c1 0300 	movt	r3, #4096	; 0x1000
    1222:	601a      	str	r2, [r3, #0]
    1224:	f04f 0300 	mov.w	r3, #0
    1228:	e001      	b.n	122e <get_measurement_+0xce>
    122a:	f04f 03ff 	mov.w	r3, #255	; 0xff
    122e:	4618      	mov	r0, r3
    1230:	f107 0710 	add.w	r7, r7, #16
    1234:	46bd      	mov	sp, r7
    1236:	bd80      	pop	{r7, pc}
    1238:	42c80000 	.word	0x42c80000

0000123c <sendCmd>:
    123c:	b580      	push	{r7, lr}
    123e:	b082      	sub	sp, #8
    1240:	af00      	add	r7, sp, #0
    1242:	4603      	mov	r3, r0
    1244:	71fb      	strb	r3, [r7, #7]
    1246:	f240 13a8 	movw	r3, #424	; 0x1a8
    124a:	f2c1 0300 	movt	r3, #4096	; 0x1000
    124e:	f107 0207 	add.w	r2, r7, #7
    1252:	605a      	str	r2, [r3, #4]
    1254:	f44f 4040 	mov.w	r0, #49152	; 0xc000
    1258:	f2c4 0001 	movt	r0, #16385	; 0x4001
    125c:	f240 11a8 	movw	r1, #424	; 0x1a8
    1260:	f2c1 0100 	movt	r1, #4096	; 0x1000
    1264:	f04f 0200 	mov.w	r2, #0
    1268:	f002 f8d0 	bl	340c <I2C_MasterTransferData>
    126c:	4603      	mov	r3, r0
    126e:	2b01      	cmp	r3, #1
    1270:	d102      	bne.n	1278 <sendCmd+0x3c>
    1272:	f04f 0300 	mov.w	r3, #0
    1276:	e001      	b.n	127c <sendCmd+0x40>
    1278:	f04f 33ff 	mov.w	r3, #4294967295
    127c:	4618      	mov	r0, r3
    127e:	f107 0708 	add.w	r7, r7, #8
    1282:	46bd      	mov	sp, r7
    1284:	bd80      	pop	{r7, pc}
    1286:	bf00      	nop

00001288 <readData>:
    1288:	b580      	push	{r7, lr}
    128a:	b084      	sub	sp, #16
    128c:	af00      	add	r7, sp, #0
    128e:	6078      	str	r0, [r7, #4]
    1290:	f240 13d4 	movw	r3, #468	; 0x1d4
    1294:	f2c1 0300 	movt	r3, #4096	; 0x1000
    1298:	f107 020c 	add.w	r2, r7, #12
    129c:	611a      	str	r2, [r3, #16]
    129e:	f44f 4040 	mov.w	r0, #49152	; 0xc000
    12a2:	f2c4 0001 	movt	r0, #16385	; 0x4001
    12a6:	f240 11d4 	movw	r1, #468	; 0x1d4
    12aa:	f2c1 0100 	movt	r1, #4096	; 0x1000
    12ae:	f04f 0200 	mov.w	r2, #0
    12b2:	f002 f8ab 	bl	340c <I2C_MasterTransferData>
    12b6:	4603      	mov	r3, r0
    12b8:	2b01      	cmp	r3, #1
    12ba:	d11e      	bne.n	12fa <readData+0x72>
    12bc:	f240 13d4 	movw	r3, #468	; 0x1d4
    12c0:	f2c1 0300 	movt	r3, #4096	; 0x1000
    12c4:	695b      	ldr	r3, [r3, #20]
    12c6:	2b03      	cmp	r3, #3
    12c8:	d10c      	bne.n	12e4 <readData+0x5c>
    12ca:	7b3b      	ldrb	r3, [r7, #12]
    12cc:	ea4f 4203 	mov.w	r2, r3, lsl #16
    12d0:	7b7b      	ldrb	r3, [r7, #13]
    12d2:	ea4f 2303 	mov.w	r3, r3, lsl #8
    12d6:	431a      	orrs	r2, r3
    12d8:	7bbb      	ldrb	r3, [r7, #14]
    12da:	4313      	orrs	r3, r2
    12dc:	461a      	mov	r2, r3
    12de:	687b      	ldr	r3, [r7, #4]
    12e0:	601a      	str	r2, [r3, #0]
    12e2:	e007      	b.n	12f4 <readData+0x6c>
    12e4:	7b3b      	ldrb	r3, [r7, #12]
    12e6:	ea4f 2203 	mov.w	r2, r3, lsl #8
    12ea:	7b7b      	ldrb	r3, [r7, #13]
    12ec:	4313      	orrs	r3, r2
    12ee:	461a      	mov	r2, r3
    12f0:	687b      	ldr	r3, [r7, #4]
    12f2:	601a      	str	r2, [r3, #0]
    12f4:	f04f 0300 	mov.w	r3, #0
    12f8:	e005      	b.n	1306 <readData+0x7e>
    12fa:	687b      	ldr	r3, [r7, #4]
    12fc:	f04f 0200 	mov.w	r2, #0
    1300:	601a      	str	r2, [r3, #0]
    1302:	f04f 33ff 	mov.w	r3, #4294967295
    1306:	4618      	mov	r0, r3
    1308:	f107 0710 	add.w	r7, r7, #16
    130c:	46bd      	mov	sp, r7
    130e:	bd80      	pop	{r7, pc}

00001310 <readCalibration>:
    1310:	b580      	push	{r7, lr}
    1312:	b082      	sub	sp, #8
    1314:	af00      	add	r7, sp, #0
    1316:	f04f 0300 	mov.w	r3, #0
    131a:	71fb      	strb	r3, [r7, #7]
    131c:	f04f 0300 	mov.w	r3, #0
    1320:	71bb      	strb	r3, [r7, #6]
    1322:	f240 13d4 	movw	r3, #468	; 0x1d4
    1326:	f2c1 0300 	movt	r3, #4096	; 0x1000
    132a:	f04f 0202 	mov.w	r2, #2
    132e:	615a      	str	r2, [r3, #20]
    1330:	f04f 0300 	mov.w	r3, #0
    1334:	71fb      	strb	r3, [r7, #7]
    1336:	e027      	b.n	1388 <readCalibration+0x78>
    1338:	79fb      	ldrb	r3, [r7, #7]
    133a:	f103 0301 	add.w	r3, r3, #1
    133e:	b2db      	uxtb	r3, r3
    1340:	ea4f 0343 	mov.w	r3, r3, lsl #1
    1344:	b2db      	uxtb	r3, r3
    1346:	f1a3 0360 	sub.w	r3, r3, #96	; 0x60
    134a:	b2db      	uxtb	r3, r3
    134c:	4618      	mov	r0, r3
    134e:	f7ff ff75 	bl	123c <sendCmd>
    1352:	4603      	mov	r3, r0
    1354:	b2da      	uxtb	r2, r3
    1356:	79bb      	ldrb	r3, [r7, #6]
    1358:	18d3      	adds	r3, r2, r3
    135a:	b2db      	uxtb	r3, r3
    135c:	71bb      	strb	r3, [r7, #6]
    135e:	79fb      	ldrb	r3, [r7, #7]
    1360:	ea4f 0243 	mov.w	r2, r3, lsl #1
    1364:	f240 2300 	movw	r3, #512	; 0x200
    1368:	f2c1 0300 	movt	r3, #4096	; 0x1000
    136c:	18d3      	adds	r3, r2, r3
    136e:	4618      	mov	r0, r3
    1370:	f7ff ff8a 	bl	1288 <readData>
    1374:	4603      	mov	r3, r0
    1376:	b2da      	uxtb	r2, r3
    1378:	79bb      	ldrb	r3, [r7, #6]
    137a:	18d3      	adds	r3, r2, r3
    137c:	b2db      	uxtb	r3, r3
    137e:	71bb      	strb	r3, [r7, #6]
    1380:	79fb      	ldrb	r3, [r7, #7]
    1382:	f103 0301 	add.w	r3, r3, #1
    1386:	71fb      	strb	r3, [r7, #7]
    1388:	79fb      	ldrb	r3, [r7, #7]
    138a:	2b06      	cmp	r3, #6
    138c:	d9d4      	bls.n	1338 <readCalibration+0x28>
    138e:	f997 3006 	ldrsb.w	r3, [r7, #6]
    1392:	4618      	mov	r0, r3
    1394:	f107 0708 	add.w	r7, r7, #8
    1398:	46bd      	mov	sp, r7
    139a:	bd80      	pop	{r7, pc}

0000139c <calcPressure>:
    139c:	e92d 0fb0 	stmdb	sp!, {r4, r5, r7, r8, r9, sl, fp}
    13a0:	b093      	sub	sp, #76	; 0x4c
    13a2:	af00      	add	r7, sp, #0
    13a4:	6278      	str	r0, [r7, #36]	; 0x24
    13a6:	6239      	str	r1, [r7, #32]
    13a8:	f240 2300 	movw	r3, #512	; 0x200
    13ac:	f2c1 0300 	movt	r3, #4096	; 0x1000
    13b0:	891b      	ldrh	r3, [r3, #8]
    13b2:	ea4f 2203 	mov.w	r2, r3, lsl #8
    13b6:	6a3b      	ldr	r3, [r7, #32]
    13b8:	1a9b      	subs	r3, r3, r2
    13ba:	647b      	str	r3, [r7, #68]	; 0x44
    13bc:	f240 2300 	movw	r3, #512	; 0x200
    13c0:	f2c1 0300 	movt	r3, #4096	; 0x1000
    13c4:	8859      	ldrh	r1, [r3, #2]
    13c6:	b28a      	uxth	r2, r1
    13c8:	f04f 0300 	mov.w	r3, #0
    13cc:	ea4f 4112 	mov.w	r1, r2, lsr #16
    13d0:	ea4f 4003 	mov.w	r0, r3, lsl #16
    13d4:	61f8      	str	r0, [r7, #28]
    13d6:	69f8      	ldr	r0, [r7, #28]
    13d8:	4308      	orrs	r0, r1
    13da:	61f8      	str	r0, [r7, #28]
    13dc:	ea4f 4102 	mov.w	r1, r2, lsl #16
    13e0:	61b9      	str	r1, [r7, #24]
    13e2:	f240 2300 	movw	r3, #512	; 0x200
    13e6:	f2c1 0300 	movt	r3, #4096	; 0x1000
    13ea:	88db      	ldrh	r3, [r3, #6]
    13ec:	b29c      	uxth	r4, r3
    13ee:	f04f 0500 	mov.w	r5, #0
    13f2:	6c79      	ldr	r1, [r7, #68]	; 0x44
    13f4:	460a      	mov	r2, r1
    13f6:	ea4f 73e2 	mov.w	r3, r2, asr #31
    13fa:	fb02 f005 	mul.w	r0, r2, r5
    13fe:	fb04 f103 	mul.w	r1, r4, r3
    1402:	1841      	adds	r1, r0, r1
    1404:	fba4 2302 	umull	r2, r3, r4, r2
    1408:	18c9      	adds	r1, r1, r3
    140a:	460b      	mov	r3, r1
    140c:	ea4f 6143 	mov.w	r1, r3, lsl #25
    1410:	ea4f 18d2 	mov.w	r8, r2, lsr #7
    1414:	ea41 0808 	orr.w	r8, r1, r8
    1418:	ea4f 19e3 	mov.w	r9, r3, asr #7
    141c:	e9d7 2306 	ldrd	r2, r3, [r7, #24]
    1420:	eb12 0208 	adds.w	r2, r2, r8
    1424:	eb43 0309 	adc.w	r3, r3, r9
    1428:	e9c7 230e 	strd	r2, r3, [r7, #56]	; 0x38
    142c:	f240 2300 	movw	r3, #512	; 0x200
    1430:	f2c1 0300 	movt	r3, #4096	; 0x1000
    1434:	8819      	ldrh	r1, [r3, #0]
    1436:	b28a      	uxth	r2, r1
    1438:	f04f 0300 	mov.w	r3, #0
    143c:	ea4f 4152 	mov.w	r1, r2, lsr #17
    1440:	ea4f 30c3 	mov.w	r0, r3, lsl #15
    1444:	6178      	str	r0, [r7, #20]
    1446:	6978      	ldr	r0, [r7, #20]
    1448:	4308      	orrs	r0, r1
    144a:	6178      	str	r0, [r7, #20]
    144c:	ea4f 31c2 	mov.w	r1, r2, lsl #15
    1450:	6139      	str	r1, [r7, #16]
    1452:	f240 2300 	movw	r3, #512	; 0x200
    1456:	f2c1 0300 	movt	r3, #4096	; 0x1000
    145a:	889b      	ldrh	r3, [r3, #4]
    145c:	b29c      	uxth	r4, r3
    145e:	f04f 0500 	mov.w	r5, #0
    1462:	6c79      	ldr	r1, [r7, #68]	; 0x44
    1464:	460a      	mov	r2, r1
    1466:	ea4f 73e2 	mov.w	r3, r2, asr #31
    146a:	fb02 f005 	mul.w	r0, r2, r5
    146e:	fb04 f103 	mul.w	r1, r4, r3
    1472:	1841      	adds	r1, r0, r1
    1474:	fba4 2302 	umull	r2, r3, r4, r2
    1478:	18c9      	adds	r1, r1, r3
    147a:	460b      	mov	r3, r1
    147c:	ea4f 6103 	mov.w	r1, r3, lsl #24
    1480:	ea4f 2012 	mov.w	r0, r2, lsr #8
    1484:	60b8      	str	r0, [r7, #8]
    1486:	68b8      	ldr	r0, [r7, #8]
    1488:	4308      	orrs	r0, r1
    148a:	60b8      	str	r0, [r7, #8]
    148c:	ea4f 2123 	mov.w	r1, r3, asr #8
    1490:	60f9      	str	r1, [r7, #12]
    1492:	e9d7 2304 	ldrd	r2, r3, [r7, #16]
    1496:	e9d7 0102 	ldrd	r0, r1, [r7, #8]
    149a:	1812      	adds	r2, r2, r0
    149c:	eb43 0301 	adc.w	r3, r3, r1
    14a0:	e9c7 230c 	strd	r2, r3, [r7, #48]	; 0x30
    14a4:	6a7b      	ldr	r3, [r7, #36]	; 0x24
    14a6:	461c      	mov	r4, r3
    14a8:	f04f 0500 	mov.w	r5, #0
    14ac:	6b7b      	ldr	r3, [r7, #52]	; 0x34
    14ae:	ea4f 22c3 	mov.w	r2, r3, lsl #11
    14b2:	6b3b      	ldr	r3, [r7, #48]	; 0x30
    14b4:	ea4f 5a53 	mov.w	sl, r3, lsr #21
    14b8:	ea42 0a0a 	orr.w	sl, r2, sl
    14bc:	6b7b      	ldr	r3, [r7, #52]	; 0x34
    14be:	ea4f 5b63 	mov.w	fp, r3, asr #21
    14c2:	fb0a f205 	mul.w	r2, sl, r5
    14c6:	fb04 f30b 	mul.w	r3, r4, fp
    14ca:	18d1      	adds	r1, r2, r3
    14cc:	fba4 230a 	umull	r2, r3, r4, sl
    14d0:	18c9      	adds	r1, r1, r3
    14d2:	460b      	mov	r3, r1
    14d4:	e9d7 010e 	ldrd	r0, r1, [r7, #56]	; 0x38
    14d8:	1a12      	subs	r2, r2, r0
    14da:	eb63 0301 	sbc.w	r3, r3, r1
    14de:	e9c7 230a 	strd	r2, r3, [r7, #40]	; 0x28
    14e2:	6afb      	ldr	r3, [r7, #44]	; 0x2c
    14e4:	ea4f 4343 	mov.w	r3, r3, lsl #17
    14e8:	6aba      	ldr	r2, [r7, #40]	; 0x28
    14ea:	ea4f 32d2 	mov.w	r2, r2, lsr #15
    14ee:	603a      	str	r2, [r7, #0]
    14f0:	6839      	ldr	r1, [r7, #0]
    14f2:	4319      	orrs	r1, r3
    14f4:	6039      	str	r1, [r7, #0]
    14f6:	6afb      	ldr	r3, [r7, #44]	; 0x2c
    14f8:	ea4f 33e3 	mov.w	r3, r3, asr #15
    14fc:	607b      	str	r3, [r7, #4]
    14fe:	683b      	ldr	r3, [r7, #0]
    1500:	4618      	mov	r0, r3
    1502:	f107 074c 	add.w	r7, r7, #76	; 0x4c
    1506:	46bd      	mov	sp, r7
    1508:	e8bd 0fb0 	ldmia.w	sp!, {r4, r5, r7, r8, r9, sl, fp}
    150c:	4770      	bx	lr
    150e:	bf00      	nop

00001510 <calcTemperature>:
    1510:	b490      	push	{r4, r7}
    1512:	b086      	sub	sp, #24
    1514:	af00      	add	r7, sp, #0
    1516:	6078      	str	r0, [r7, #4]
    1518:	f240 2100 	movw	r1, #512	; 0x200
    151c:	f2c1 0100 	movt	r1, #4096	; 0x1000
    1520:	8909      	ldrh	r1, [r1, #8]
    1522:	ea4f 2101 	mov.w	r1, r1, lsl #8
    1526:	6878      	ldr	r0, [r7, #4]
    1528:	1a41      	subs	r1, r0, r1
    152a:	6179      	str	r1, [r7, #20]
    152c:	f240 2100 	movw	r1, #512	; 0x200
    1530:	f2c1 0100 	movt	r1, #4096	; 0x1000
    1534:	8949      	ldrh	r1, [r1, #10]
    1536:	6978      	ldr	r0, [r7, #20]
    1538:	fb00 f401 	mul.w	r4, r0, r1
    153c:	4620      	mov	r0, r4
    153e:	ea4f 71e0 	mov.w	r1, r0, asr #31
    1542:	e9c7 0102 	strd	r0, r1, [r7, #8]
    1546:	68f9      	ldr	r1, [r7, #12]
    1548:	ea4f 2141 	mov.w	r1, r1, lsl #9
    154c:	68b8      	ldr	r0, [r7, #8]
    154e:	ea4f 52d0 	mov.w	r2, r0, lsr #23
    1552:	430a      	orrs	r2, r1
    1554:	68f9      	ldr	r1, [r7, #12]
    1556:	ea4f 53e1 	mov.w	r3, r1, asr #23
    155a:	4613      	mov	r3, r2
    155c:	f503 63fa 	add.w	r3, r3, #2000	; 0x7d0
    1560:	4618      	mov	r0, r3
    1562:	f107 0718 	add.w	r7, r7, #24
    1566:	46bd      	mov	sp, r7
    1568:	bc90      	pop	{r4, r7}
    156a:	4770      	bx	lr

0000156c <init_>:
    156c:	b480      	push	{r7}
    156e:	af00      	add	r7, sp, #0
    1570:	f240 2314 	movw	r3, #532	; 0x214
    1574:	f2c1 0300 	movt	r3, #4096	; 0x1000
    1578:	f04f 0240 	mov.w	r2, #64	; 0x40
    157c:	601a      	str	r2, [r3, #0]
    157e:	f240 2314 	movw	r3, #532	; 0x214
    1582:	f2c1 0300 	movt	r3, #4096	; 0x1000
    1586:	f04f 0201 	mov.w	r2, #1
    158a:	609a      	str	r2, [r3, #8]
    158c:	f240 2314 	movw	r3, #532	; 0x214
    1590:	f2c1 0300 	movt	r3, #4096	; 0x1000
    1594:	f04f 0200 	mov.w	r2, #0
    1598:	611a      	str	r2, [r3, #16]
    159a:	f240 2314 	movw	r3, #532	; 0x214
    159e:	f2c1 0300 	movt	r3, #4096	; 0x1000
    15a2:	f04f 0200 	mov.w	r2, #0
    15a6:	615a      	str	r2, [r3, #20]
    15a8:	f240 2314 	movw	r3, #532	; 0x214
    15ac:	f2c1 0300 	movt	r3, #4096	; 0x1000
    15b0:	f04f 0203 	mov.w	r2, #3
    15b4:	61da      	str	r2, [r3, #28]
    15b6:	f240 2340 	movw	r3, #576	; 0x240
    15ba:	f2c1 0300 	movt	r3, #4096	; 0x1000
    15be:	f04f 0240 	mov.w	r2, #64	; 0x40
    15c2:	601a      	str	r2, [r3, #0]
    15c4:	f240 2340 	movw	r3, #576	; 0x240
    15c8:	f2c1 0300 	movt	r3, #4096	; 0x1000
    15cc:	f04f 0200 	mov.w	r2, #0
    15d0:	605a      	str	r2, [r3, #4]
    15d2:	f240 2340 	movw	r3, #576	; 0x240
    15d6:	f2c1 0300 	movt	r3, #4096	; 0x1000
    15da:	f04f 0200 	mov.w	r2, #0
    15de:	609a      	str	r2, [r3, #8]
    15e0:	f240 2340 	movw	r3, #576	; 0x240
    15e4:	f2c1 0300 	movt	r3, #4096	; 0x1000
    15e8:	f04f 0203 	mov.w	r2, #3
    15ec:	615a      	str	r2, [r3, #20]
    15ee:	f240 2340 	movw	r3, #576	; 0x240
    15f2:	f2c1 0300 	movt	r3, #4096	; 0x1000
    15f6:	f04f 0203 	mov.w	r2, #3
    15fa:	61da      	str	r2, [r3, #28]
    15fc:	46bd      	mov	sp, r7
    15fe:	bc80      	pop	{r7}
    1600:	4770      	bx	lr
    1602:	bf00      	nop

00001604 <set_on_>:
    1604:	b480      	push	{r7}
    1606:	af00      	add	r7, sp, #0
    1608:	f04f 0300 	mov.w	r3, #0
    160c:	4618      	mov	r0, r3
    160e:	46bd      	mov	sp, r7
    1610:	bc80      	pop	{r7}
    1612:	4770      	bx	lr

00001614 <set_off_>:
    1614:	b480      	push	{r7}
    1616:	af00      	add	r7, sp, #0
    1618:	f04f 0300 	mov.w	r3, #0
    161c:	4618      	mov	r0, r3
    161e:	46bd      	mov	sp, r7
    1620:	bc80      	pop	{r7}
    1622:	4770      	bx	lr

00001624 <set_range_>:
    1624:	b480      	push	{r7}
    1626:	b083      	sub	sp, #12
    1628:	af00      	add	r7, sp, #0
    162a:	4602      	mov	r2, r0
    162c:	460b      	mov	r3, r1
    162e:	71fa      	strb	r2, [r7, #7]
    1630:	71bb      	strb	r3, [r7, #6]
    1632:	79fb      	ldrb	r3, [r7, #7]
    1634:	2b01      	cmp	r3, #1
    1636:	d81b      	bhi.n	1670 <set_range_+0x4c>
    1638:	79f9      	ldrb	r1, [r7, #7]
    163a:	f245 3228 	movw	r2, #21288	; 0x5328
    163e:	f2c0 0200 	movt	r2, #0
    1642:	460b      	mov	r3, r1
    1644:	ea4f 0383 	mov.w	r3, r3, lsl #2
    1648:	185b      	adds	r3, r3, r1
    164a:	ea4f 1303 	mov.w	r3, r3, lsl #4
    164e:	18d3      	adds	r3, r2, r3
    1650:	f103 0328 	add.w	r3, r3, #40	; 0x28
    1654:	791b      	ldrb	r3, [r3, #4]
    1656:	79ba      	ldrb	r2, [r7, #6]
    1658:	429a      	cmp	r2, r3
    165a:	d209      	bcs.n	1670 <set_range_+0x4c>
    165c:	79fa      	ldrb	r2, [r7, #7]
    165e:	f240 236c 	movw	r3, #620	; 0x26c
    1662:	f2c1 0300 	movt	r3, #4096	; 0x1000
    1666:	79b9      	ldrb	r1, [r7, #6]
    1668:	5499      	strb	r1, [r3, r2]
    166a:	f04f 0300 	mov.w	r3, #0
    166e:	e001      	b.n	1674 <set_range_+0x50>
    1670:	f04f 0301 	mov.w	r3, #1
    1674:	4618      	mov	r0, r3
    1676:	f107 070c 	add.w	r7, r7, #12
    167a:	46bd      	mov	sp, r7
    167c:	bc80      	pop	{r7}
    167e:	4770      	bx	lr

00001680 <get_measurement_>:
    1680:	b580      	push	{r7, lr}
    1682:	b084      	sub	sp, #16
    1684:	af00      	add	r7, sp, #0
    1686:	4603      	mov	r3, r0
    1688:	71fb      	strb	r3, [r7, #7]
    168a:	f04f 0300 	mov.w	r3, #0
    168e:	81fb      	strh	r3, [r7, #14]
    1690:	79fb      	ldrb	r3, [r7, #7]
    1692:	2b01      	cmp	r3, #1
    1694:	d842      	bhi.n	171c <get_measurement_+0x9c>
    1696:	79fb      	ldrb	r3, [r7, #7]
    1698:	2b00      	cmp	r3, #0
    169a:	d11e      	bne.n	16da <get_measurement_+0x5a>
    169c:	f000 f8a8 	bl	17f0 <getHumidity>
    16a0:	4603      	mov	r3, r0
    16a2:	81fb      	strh	r3, [r7, #14]
    16a4:	89fb      	ldrh	r3, [r7, #14]
    16a6:	4618      	mov	r0, r3
    16a8:	f003 fa14 	bl	4ad4 <__aeabi_ui2f>
    16ac:	4603      	mov	r3, r0
    16ae:	4618      	mov	r0, r3
    16b0:	491e      	ldr	r1, [pc, #120]	; (172c <get_measurement_+0xac>)
    16b2:	f003 f86b 	bl	478c <__aeabi_fmul>
    16b6:	4603      	mov	r3, r0
    16b8:	4618      	mov	r0, r3
    16ba:	491d      	ldr	r1, [pc, #116]	; (1730 <get_measurement_+0xb0>)
    16bc:	f003 f8c6 	bl	484c <__aeabi_fdiv>
    16c0:	4603      	mov	r3, r0
    16c2:	4618      	mov	r0, r3
    16c4:	491b      	ldr	r1, [pc, #108]	; (1734 <get_measurement_+0xb4>)
    16c6:	f003 f923 	bl	4910 <__aeabi_fsub>
    16ca:	4603      	mov	r3, r0
    16cc:	461a      	mov	r2, r3
    16ce:	f240 2310 	movw	r3, #528	; 0x210
    16d2:	f2c1 0300 	movt	r3, #4096	; 0x1000
    16d6:	601a      	str	r2, [r3, #0]
    16d8:	e01d      	b.n	1716 <get_measurement_+0x96>
    16da:	f000 f8a5 	bl	1828 <getTemperature>
    16de:	4603      	mov	r3, r0
    16e0:	81fb      	strh	r3, [r7, #14]
    16e2:	89fb      	ldrh	r3, [r7, #14]
    16e4:	4618      	mov	r0, r3
    16e6:	f003 f9f5 	bl	4ad4 <__aeabi_ui2f>
    16ea:	4603      	mov	r3, r0
    16ec:	4618      	mov	r0, r3
    16ee:	4912      	ldr	r1, [pc, #72]	; (1738 <get_measurement_+0xb8>)
    16f0:	f003 f84c 	bl	478c <__aeabi_fmul>
    16f4:	4603      	mov	r3, r0
    16f6:	4618      	mov	r0, r3
    16f8:	490d      	ldr	r1, [pc, #52]	; (1730 <get_measurement_+0xb0>)
    16fa:	f003 f8a7 	bl	484c <__aeabi_fdiv>
    16fe:	4603      	mov	r3, r0
    1700:	4618      	mov	r0, r3
    1702:	490e      	ldr	r1, [pc, #56]	; (173c <get_measurement_+0xbc>)
    1704:	f003 f904 	bl	4910 <__aeabi_fsub>
    1708:	4603      	mov	r3, r0
    170a:	461a      	mov	r2, r3
    170c:	f240 2310 	movw	r3, #528	; 0x210
    1710:	f2c1 0300 	movt	r3, #4096	; 0x1000
    1714:	601a      	str	r2, [r3, #0]
    1716:	f04f 0300 	mov.w	r3, #0
    171a:	e001      	b.n	1720 <get_measurement_+0xa0>
    171c:	f04f 0301 	mov.w	r3, #1
    1720:	4618      	mov	r0, r3
    1722:	f107 0710 	add.w	r7, r7, #16
    1726:	46bd      	mov	sp, r7
    1728:	bd80      	pop	{r7, pc}
    172a:	bf00      	nop
    172c:	42fa0000 	.word	0x42fa0000
    1730:	48000000 	.word	0x48000000
    1734:	40c00000 	.word	0x40c00000
    1738:	431db852 	.word	0x431db852
    173c:	423b6666 	.word	0x423b6666

00001740 <sendCmd>:
    1740:	b580      	push	{r7, lr}
    1742:	b082      	sub	sp, #8
    1744:	af00      	add	r7, sp, #0
    1746:	4603      	mov	r3, r0
    1748:	71fb      	strb	r3, [r7, #7]
    174a:	f240 2314 	movw	r3, #532	; 0x214
    174e:	f2c1 0300 	movt	r3, #4096	; 0x1000
    1752:	f107 0207 	add.w	r2, r7, #7
    1756:	605a      	str	r2, [r3, #4]
    1758:	f44f 4040 	mov.w	r0, #49152	; 0xc000
    175c:	f2c4 0001 	movt	r0, #16385	; 0x4001
    1760:	f240 2114 	movw	r1, #532	; 0x214
    1764:	f2c1 0100 	movt	r1, #4096	; 0x1000
    1768:	f04f 0200 	mov.w	r2, #0
    176c:	f001 fe4e 	bl	340c <I2C_MasterTransferData>
    1770:	4603      	mov	r3, r0
    1772:	2b01      	cmp	r3, #1
    1774:	d102      	bne.n	177c <sendCmd+0x3c>
    1776:	f04f 0300 	mov.w	r3, #0
    177a:	e001      	b.n	1780 <sendCmd+0x40>
    177c:	f04f 0301 	mov.w	r3, #1
    1780:	4618      	mov	r0, r3
    1782:	f107 0708 	add.w	r7, r7, #8
    1786:	46bd      	mov	sp, r7
    1788:	bd80      	pop	{r7, pc}
    178a:	bf00      	nop

0000178c <readData>:
    178c:	b580      	push	{r7, lr}
    178e:	b084      	sub	sp, #16
    1790:	af00      	add	r7, sp, #0
    1792:	6078      	str	r0, [r7, #4]
    1794:	f240 2340 	movw	r3, #576	; 0x240
    1798:	f2c1 0300 	movt	r3, #4096	; 0x1000
    179c:	f107 020c 	add.w	r2, r7, #12
    17a0:	611a      	str	r2, [r3, #16]
    17a2:	f44f 4040 	mov.w	r0, #49152	; 0xc000
    17a6:	f2c4 0001 	movt	r0, #16385	; 0x4001
    17aa:	f240 2140 	movw	r1, #576	; 0x240
    17ae:	f2c1 0100 	movt	r1, #4096	; 0x1000
    17b2:	f04f 0200 	mov.w	r2, #0
    17b6:	f001 fe29 	bl	340c <I2C_MasterTransferData>
    17ba:	4603      	mov	r3, r0
    17bc:	2b01      	cmp	r3, #1
    17be:	d10b      	bne.n	17d8 <readData+0x4c>
    17c0:	7b3b      	ldrb	r3, [r7, #12]
    17c2:	ea4f 2303 	mov.w	r3, r3, lsl #8
    17c6:	b29a      	uxth	r2, r3
    17c8:	7b7b      	ldrb	r3, [r7, #13]
    17ca:	18d3      	adds	r3, r2, r3
    17cc:	b29a      	uxth	r2, r3
    17ce:	687b      	ldr	r3, [r7, #4]
    17d0:	801a      	strh	r2, [r3, #0]
    17d2:	f04f 0300 	mov.w	r3, #0
    17d6:	e005      	b.n	17e4 <readData+0x58>
    17d8:	687b      	ldr	r3, [r7, #4]
    17da:	f04f 0200 	mov.w	r2, #0
    17de:	801a      	strh	r2, [r3, #0]
    17e0:	f04f 0301 	mov.w	r3, #1
    17e4:	4618      	mov	r0, r3
    17e6:	f107 0710 	add.w	r7, r7, #16
    17ea:	46bd      	mov	sp, r7
    17ec:	bd80      	pop	{r7, pc}
    17ee:	bf00      	nop

000017f0 <getHumidity>:
    17f0:	b580      	push	{r7, lr}
    17f2:	b082      	sub	sp, #8
    17f4:	af00      	add	r7, sp, #0
    17f6:	f04f 00f5 	mov.w	r0, #245	; 0xf5
    17fa:	f7ff ffa1 	bl	1740 <sendCmd>
    17fe:	f04f 001d 	mov.w	r0, #29
    1802:	f001 f97f 	bl	2b04 <delay_ms>
    1806:	f107 0306 	add.w	r3, r7, #6
    180a:	4618      	mov	r0, r3
    180c:	f7ff ffbe 	bl	178c <readData>
    1810:	88fb      	ldrh	r3, [r7, #6]
    1812:	f023 0303 	bic.w	r3, r3, #3
    1816:	b29b      	uxth	r3, r3
    1818:	80fb      	strh	r3, [r7, #6]
    181a:	88fb      	ldrh	r3, [r7, #6]
    181c:	4618      	mov	r0, r3
    181e:	f107 0708 	add.w	r7, r7, #8
    1822:	46bd      	mov	sp, r7
    1824:	bd80      	pop	{r7, pc}
    1826:	bf00      	nop

00001828 <getTemperature>:
    1828:	b580      	push	{r7, lr}
    182a:	b082      	sub	sp, #8
    182c:	af00      	add	r7, sp, #0
    182e:	f04f 00f3 	mov.w	r0, #243	; 0xf3
    1832:	f7ff ff85 	bl	1740 <sendCmd>
    1836:	f04f 0055 	mov.w	r0, #85	; 0x55
    183a:	f001 f963 	bl	2b04 <delay_ms>
    183e:	f107 0306 	add.w	r3, r7, #6
    1842:	4618      	mov	r0, r3
    1844:	f7ff ffa2 	bl	178c <readData>
    1848:	88fb      	ldrh	r3, [r7, #6]
    184a:	f023 0303 	bic.w	r3, r3, #3
    184e:	b29b      	uxth	r3, r3
    1850:	80fb      	strh	r3, [r7, #6]
    1852:	88fb      	ldrh	r3, [r7, #6]
    1854:	4618      	mov	r0, r3
    1856:	f107 0708 	add.w	r7, r7, #8
    185a:	46bd      	mov	sp, r7
    185c:	bd80      	pop	{r7, pc}
    185e:	bf00      	nop

00001860 <sensors_init>:
    1860:	b480      	push	{r7}
    1862:	b083      	sub	sp, #12
    1864:	af00      	add	r7, sp, #0
    1866:	4603      	mov	r3, r0
    1868:	6039      	str	r1, [r7, #0]
    186a:	71fb      	strb	r3, [r7, #7]
    186c:	f240 2370 	movw	r3, #624	; 0x270
    1870:	f2c1 0300 	movt	r3, #4096	; 0x1000
    1874:	79fa      	ldrb	r2, [r7, #7]
    1876:	701a      	strb	r2, [r3, #0]
    1878:	f240 23c0 	movw	r3, #704	; 0x2c0
    187c:	f2c1 0300 	movt	r3, #4096	; 0x1000
    1880:	683a      	ldr	r2, [r7, #0]
    1882:	601a      	str	r2, [r3, #0]
    1884:	f107 070c 	add.w	r7, r7, #12
    1888:	46bd      	mov	sp, r7
    188a:	bc80      	pop	{r7}
    188c:	4770      	bx	lr
    188e:	bf00      	nop

00001890 <sensor_handler>:
    1890:	b580      	push	{r7, lr}
    1892:	af00      	add	r7, sp, #0
    1894:	e027      	b.n	18e6 <sensor_handler+0x56>
    1896:	f240 237c 	movw	r3, #636	; 0x27c
    189a:	f2c1 0300 	movt	r3, #4096	; 0x1000
    189e:	681a      	ldr	r2, [r3, #0]
    18a0:	f240 23c8 	movw	r3, #712	; 0x2c8
    18a4:	f2c1 0300 	movt	r3, #4096	; 0x1000
    18a8:	5c9b      	ldrb	r3, [r3, r2]
    18aa:	b2db      	uxtb	r3, r3
    18ac:	4618      	mov	r0, r3
    18ae:	f000 f827 	bl	1900 <sensor_cmd_process>
    18b2:	f240 237c 	movw	r3, #636	; 0x27c
    18b6:	f2c1 0300 	movt	r3, #4096	; 0x1000
    18ba:	681b      	ldr	r3, [r3, #0]
    18bc:	f103 0201 	add.w	r2, r3, #1
    18c0:	f240 237c 	movw	r3, #636	; 0x27c
    18c4:	f2c1 0300 	movt	r3, #4096	; 0x1000
    18c8:	601a      	str	r2, [r3, #0]
    18ca:	f240 237c 	movw	r3, #636	; 0x27c
    18ce:	f2c1 0300 	movt	r3, #4096	; 0x1000
    18d2:	681b      	ldr	r3, [r3, #0]
    18d4:	2b80      	cmp	r3, #128	; 0x80
    18d6:	d106      	bne.n	18e6 <sensor_handler+0x56>
    18d8:	f240 237c 	movw	r3, #636	; 0x27c
    18dc:	f2c1 0300 	movt	r3, #4096	; 0x1000
    18e0:	f04f 0200 	mov.w	r2, #0
    18e4:	601a      	str	r2, [r3, #0]
    18e6:	f240 237c 	movw	r3, #636	; 0x27c
    18ea:	f2c1 0300 	movt	r3, #4096	; 0x1000
    18ee:	681a      	ldr	r2, [r3, #0]
    18f0:	f240 2380 	movw	r3, #640	; 0x280
    18f4:	f2c1 0300 	movt	r3, #4096	; 0x1000
    18f8:	681b      	ldr	r3, [r3, #0]
    18fa:	429a      	cmp	r2, r3
    18fc:	d1cb      	bne.n	1896 <sensor_handler+0x6>
    18fe:	bd80      	pop	{r7, pc}

00001900 <sensor_cmd_process>:
    1900:	b580      	push	{r7, lr}
    1902:	b082      	sub	sp, #8
    1904:	af00      	add	r7, sp, #0
    1906:	4603      	mov	r3, r0
    1908:	71fb      	strb	r3, [r7, #7]
    190a:	f240 0300 	movw	r3, #0
    190e:	f2c1 0300 	movt	r3, #4096	; 0x1000
    1912:	781b      	ldrb	r3, [r3, #0]
    1914:	2b03      	cmp	r3, #3
    1916:	f200 80ab 	bhi.w	1a70 <sensor_cmd_process+0x170>
    191a:	a201      	add	r2, pc, #4	; (adr r2, 1920 <sensor_cmd_process+0x20>)
    191c:	f852 f023 	ldr.w	pc, [r2, r3, lsl #2]
    1920:	00001931 	.word	0x00001931
    1924:	00001949 	.word	0x00001949
    1928:	000019bd 	.word	0x000019bd
    192c:	00001a11 	.word	0x00001a11
    1930:	79fb      	ldrb	r3, [r7, #7]
    1932:	2b7b      	cmp	r3, #123	; 0x7b
    1934:	f040 80c8 	bne.w	1ac8 <sensor_cmd_process+0x1c8>
    1938:	f240 0300 	movw	r3, #0
    193c:	f2c1 0300 	movt	r3, #4096	; 0x1000
    1940:	f04f 0201 	mov.w	r2, #1
    1944:	701a      	strb	r2, [r3, #0]
    1946:	e0bf      	b.n	1ac8 <sensor_cmd_process+0x1c8>
    1948:	79fb      	ldrb	r3, [r7, #7]
    194a:	2b7c      	cmp	r3, #124	; 0x7c
    194c:	d002      	beq.n	1954 <sensor_cmd_process+0x54>
    194e:	2b7d      	cmp	r3, #125	; 0x7d
    1950:	d024      	beq.n	199c <sensor_cmd_process+0x9c>
    1952:	e02b      	b.n	19ac <sensor_cmd_process+0xac>
    1954:	f240 0300 	movw	r3, #0
    1958:	f2c1 0300 	movt	r3, #4096	; 0x1000
    195c:	f04f 0202 	mov.w	r2, #2
    1960:	701a      	strb	r2, [r3, #0]
    1962:	f240 2371 	movw	r3, #625	; 0x271
    1966:	f2c1 0300 	movt	r3, #4096	; 0x1000
    196a:	f04f 0200 	mov.w	r2, #0
    196e:	701a      	strb	r2, [r3, #0]
    1970:	f240 2374 	movw	r3, #628	; 0x274
    1974:	f2c1 0300 	movt	r3, #4096	; 0x1000
    1978:	f04f 0200 	mov.w	r2, #0
    197c:	701a      	strb	r2, [r3, #0]
    197e:	f240 2374 	movw	r3, #628	; 0x274
    1982:	f2c1 0300 	movt	r3, #4096	; 0x1000
    1986:	f04f 0200 	mov.w	r2, #0
    198a:	705a      	strb	r2, [r3, #1]
    198c:	f240 2374 	movw	r3, #628	; 0x274
    1990:	f2c1 0300 	movt	r3, #4096	; 0x1000
    1994:	f04f 0200 	mov.w	r2, #0
    1998:	709a      	strb	r2, [r3, #2]
    199a:	e00e      	b.n	19ba <sensor_cmd_process+0xba>
    199c:	f240 0300 	movw	r3, #0
    19a0:	f2c1 0300 	movt	r3, #4096	; 0x1000
    19a4:	f04f 0203 	mov.w	r2, #3
    19a8:	701a      	strb	r2, [r3, #0]
    19aa:	e006      	b.n	19ba <sensor_cmd_process+0xba>
    19ac:	f240 2378 	movw	r3, #632	; 0x278
    19b0:	f2c1 0300 	movt	r3, #4096	; 0x1000
    19b4:	79fa      	ldrb	r2, [r7, #7]
    19b6:	701a      	strb	r2, [r3, #0]
    19b8:	bf00      	nop
    19ba:	e086      	b.n	1aca <sensor_cmd_process+0x1ca>
    19bc:	79fb      	ldrb	r3, [r7, #7]
    19be:	2b7c      	cmp	r3, #124	; 0x7c
    19c0:	d002      	beq.n	19c8 <sensor_cmd_process+0xc8>
    19c2:	2b7d      	cmp	r3, #125	; 0x7d
    19c4:	d00e      	beq.n	19e4 <sensor_cmd_process+0xe4>
    19c6:	e015      	b.n	19f4 <sensor_cmd_process+0xf4>
    19c8:	f240 2371 	movw	r3, #625	; 0x271
    19cc:	f2c1 0300 	movt	r3, #4096	; 0x1000
    19d0:	781b      	ldrb	r3, [r3, #0]
    19d2:	f103 0301 	add.w	r3, r3, #1
    19d6:	b2da      	uxtb	r2, r3
    19d8:	f240 2371 	movw	r3, #625	; 0x271
    19dc:	f2c1 0300 	movt	r3, #4096	; 0x1000
    19e0:	701a      	strb	r2, [r3, #0]
    19e2:	e014      	b.n	1a0e <sensor_cmd_process+0x10e>
    19e4:	f240 0300 	movw	r3, #0
    19e8:	f2c1 0300 	movt	r3, #4096	; 0x1000
    19ec:	f04f 0203 	mov.w	r2, #3
    19f0:	701a      	strb	r2, [r3, #0]
    19f2:	e00c      	b.n	1a0e <sensor_cmd_process+0x10e>
    19f4:	f240 2371 	movw	r3, #625	; 0x271
    19f8:	f2c1 0300 	movt	r3, #4096	; 0x1000
    19fc:	781b      	ldrb	r3, [r3, #0]
    19fe:	461a      	mov	r2, r3
    1a00:	f240 2374 	movw	r3, #628	; 0x274
    1a04:	f2c1 0300 	movt	r3, #4096	; 0x1000
    1a08:	79f9      	ldrb	r1, [r7, #7]
    1a0a:	5499      	strb	r1, [r3, r2]
    1a0c:	bf00      	nop
    1a0e:	e05c      	b.n	1aca <sensor_cmd_process+0x1ca>
    1a10:	f240 2378 	movw	r3, #632	; 0x278
    1a14:	f2c1 0300 	movt	r3, #4096	; 0x1000
    1a18:	781b      	ldrb	r3, [r3, #0]
    1a1a:	4618      	mov	r0, r3
    1a1c:	f240 2174 	movw	r1, #628	; 0x274
    1a20:	f2c1 0100 	movt	r1, #4096	; 0x1000
    1a24:	f000 f856 	bl	1ad4 <sensor_cmd_run>
    1a28:	f240 2371 	movw	r3, #625	; 0x271
    1a2c:	f2c1 0300 	movt	r3, #4096	; 0x1000
    1a30:	f04f 0200 	mov.w	r2, #0
    1a34:	701a      	strb	r2, [r3, #0]
    1a36:	f240 2374 	movw	r3, #628	; 0x274
    1a3a:	f2c1 0300 	movt	r3, #4096	; 0x1000
    1a3e:	f04f 0200 	mov.w	r2, #0
    1a42:	701a      	strb	r2, [r3, #0]
    1a44:	f240 2374 	movw	r3, #628	; 0x274
    1a48:	f2c1 0300 	movt	r3, #4096	; 0x1000
    1a4c:	f04f 0200 	mov.w	r2, #0
    1a50:	705a      	strb	r2, [r3, #1]
    1a52:	f240 2374 	movw	r3, #628	; 0x274
    1a56:	f2c1 0300 	movt	r3, #4096	; 0x1000
    1a5a:	f04f 0200 	mov.w	r2, #0
    1a5e:	709a      	strb	r2, [r3, #2]
    1a60:	f240 0300 	movw	r3, #0
    1a64:	f2c1 0300 	movt	r3, #4096	; 0x1000
    1a68:	f04f 0200 	mov.w	r2, #0
    1a6c:	701a      	strb	r2, [r3, #0]
    1a6e:	e02c      	b.n	1aca <sensor_cmd_process+0x1ca>
    1a70:	f240 0300 	movw	r3, #0
    1a74:	f2c1 0300 	movt	r3, #4096	; 0x1000
    1a78:	f04f 0200 	mov.w	r2, #0
    1a7c:	701a      	strb	r2, [r3, #0]
    1a7e:	f240 2371 	movw	r3, #625	; 0x271
    1a82:	f2c1 0300 	movt	r3, #4096	; 0x1000
    1a86:	f04f 0200 	mov.w	r2, #0
    1a8a:	701a      	strb	r2, [r3, #0]
    1a8c:	f240 2374 	movw	r3, #628	; 0x274
    1a90:	f2c1 0300 	movt	r3, #4096	; 0x1000
    1a94:	f04f 0200 	mov.w	r2, #0
    1a98:	701a      	strb	r2, [r3, #0]
    1a9a:	f240 2374 	movw	r3, #628	; 0x274
    1a9e:	f2c1 0300 	movt	r3, #4096	; 0x1000
    1aa2:	f04f 0200 	mov.w	r2, #0
    1aa6:	705a      	strb	r2, [r3, #1]
    1aa8:	f240 2374 	movw	r3, #628	; 0x274
    1aac:	f2c1 0300 	movt	r3, #4096	; 0x1000
    1ab0:	f04f 0200 	mov.w	r2, #0
    1ab4:	709a      	strb	r2, [r3, #2]
    1ab6:	f240 2378 	movw	r3, #632	; 0x278
    1aba:	f2c1 0300 	movt	r3, #4096	; 0x1000
    1abe:	f04f 0200 	mov.w	r2, #0
    1ac2:	701a      	strb	r2, [r3, #0]
    1ac4:	bf00      	nop
    1ac6:	e000      	b.n	1aca <sensor_cmd_process+0x1ca>
    1ac8:	bf00      	nop
    1aca:	f107 0708 	add.w	r7, r7, #8
    1ace:	46bd      	mov	sp, r7
    1ad0:	bd80      	pop	{r7, pc}
    1ad2:	bf00      	nop

00001ad4 <sensor_cmd_run>:
    1ad4:	b590      	push	{r4, r7, lr}
    1ad6:	b08d      	sub	sp, #52	; 0x34
    1ad8:	af00      	add	r7, sp, #0
    1ada:	4603      	mov	r3, r0
    1adc:	60b9      	str	r1, [r7, #8]
    1ade:	73fb      	strb	r3, [r7, #15]
    1ae0:	68bb      	ldr	r3, [r7, #8]
    1ae2:	781b      	ldrb	r3, [r3, #0]
    1ae4:	f1a3 0330 	sub.w	r3, r3, #48	; 0x30
    1ae8:	b2da      	uxtb	r2, r3
    1aea:	68bb      	ldr	r3, [r7, #8]
    1aec:	701a      	strb	r2, [r3, #0]
    1aee:	68bb      	ldr	r3, [r7, #8]
    1af0:	f103 0301 	add.w	r3, r3, #1
    1af4:	68ba      	ldr	r2, [r7, #8]
    1af6:	f102 0201 	add.w	r2, r2, #1
    1afa:	7812      	ldrb	r2, [r2, #0]
    1afc:	f1a2 0230 	sub.w	r2, r2, #48	; 0x30
    1b00:	b2d2      	uxtb	r2, r2
    1b02:	701a      	strb	r2, [r3, #0]
    1b04:	7bfb      	ldrb	r3, [r7, #15]
    1b06:	f1a3 0361 	sub.w	r3, r3, #97	; 0x61
    1b0a:	2b07      	cmp	r3, #7
    1b0c:	f200 849a 	bhi.w	2444 <sensor_cmd_run+0x970>
    1b10:	a201      	add	r2, pc, #4	; (adr r2, 1b18 <sensor_cmd_run+0x44>)
    1b12:	f852 f023 	ldr.w	pc, [r2, r3, lsl #2]
    1b16:	bf00      	nop
    1b18:	00001b39 	.word	0x00001b39
    1b1c:	00001b73 	.word	0x00001b73
    1b20:	00001c33 	.word	0x00001c33
    1b24:	00001f75 	.word	0x00001f75
    1b28:	00002121 	.word	0x00002121
    1b2c:	000022f5 	.word	0x000022f5
    1b30:	000023e9 	.word	0x000023e9
    1b34:	00002417 	.word	0x00002417
    1b38:	f04f 007b 	mov.w	r0, #123	; 0x7b
    1b3c:	f000 fe9a 	bl	2874 <btm222_putc>
    1b40:	f04f 0061 	mov.w	r0, #97	; 0x61
    1b44:	f000 fe96 	bl	2874 <btm222_putc>
    1b48:	f04f 007c 	mov.w	r0, #124	; 0x7c
    1b4c:	f000 fe92 	bl	2874 <btm222_putc>
    1b50:	f240 2370 	movw	r3, #624	; 0x270
    1b54:	f2c1 0300 	movt	r3, #4096	; 0x1000
    1b58:	781b      	ldrb	r3, [r3, #0]
    1b5a:	f103 0330 	add.w	r3, r3, #48	; 0x30
    1b5e:	b2db      	uxtb	r3, r3
    1b60:	4618      	mov	r0, r3
    1b62:	f000 fe87 	bl	2874 <btm222_putc>
    1b66:	f04f 007d 	mov.w	r0, #125	; 0x7d
    1b6a:	f000 fe83 	bl	2874 <btm222_putc>
    1b6e:	f000 bc78 	b.w	2462 <sensor_cmd_run+0x98e>
    1b72:	68bb      	ldr	r3, [r7, #8]
    1b74:	781a      	ldrb	r2, [r3, #0]
    1b76:	f240 2370 	movw	r3, #624	; 0x270
    1b7a:	f2c1 0300 	movt	r3, #4096	; 0x1000
    1b7e:	781b      	ldrb	r3, [r3, #0]
    1b80:	429a      	cmp	r2, r3
    1b82:	f080 8461 	bcs.w	2448 <sensor_cmd_run+0x974>
    1b86:	f04f 007b 	mov.w	r0, #123	; 0x7b
    1b8a:	f000 fe73 	bl	2874 <btm222_putc>
    1b8e:	f04f 0062 	mov.w	r0, #98	; 0x62
    1b92:	f000 fe6f 	bl	2874 <btm222_putc>
    1b96:	f04f 007c 	mov.w	r0, #124	; 0x7c
    1b9a:	f000 fe6b 	bl	2874 <btm222_putc>
    1b9e:	68bb      	ldr	r3, [r7, #8]
    1ba0:	781b      	ldrb	r3, [r3, #0]
    1ba2:	f103 0330 	add.w	r3, r3, #48	; 0x30
    1ba6:	b2db      	uxtb	r3, r3
    1ba8:	4618      	mov	r0, r3
    1baa:	f000 fe63 	bl	2874 <btm222_putc>
    1bae:	f04f 007c 	mov.w	r0, #124	; 0x7c
    1bb2:	f000 fe5f 	bl	2874 <btm222_putc>
    1bb6:	f240 23c0 	movw	r3, #704	; 0x2c0
    1bba:	f2c1 0300 	movt	r3, #4096	; 0x1000
    1bbe:	681a      	ldr	r2, [r3, #0]
    1bc0:	68bb      	ldr	r3, [r7, #8]
    1bc2:	781b      	ldrb	r3, [r3, #0]
    1bc4:	ea4f 0383 	mov.w	r3, r3, lsl #2
    1bc8:	18d3      	adds	r3, r2, r3
    1bca:	681b      	ldr	r3, [r3, #0]
    1bcc:	681b      	ldr	r3, [r3, #0]
    1bce:	4618      	mov	r0, r3
    1bd0:	f000 fe66 	bl	28a0 <btm222_puts>
    1bd4:	f04f 007c 	mov.w	r0, #124	; 0x7c
    1bd8:	f000 fe4c 	bl	2874 <btm222_putc>
    1bdc:	f240 23c0 	movw	r3, #704	; 0x2c0
    1be0:	f2c1 0300 	movt	r3, #4096	; 0x1000
    1be4:	681a      	ldr	r2, [r3, #0]
    1be6:	68bb      	ldr	r3, [r7, #8]
    1be8:	781b      	ldrb	r3, [r3, #0]
    1bea:	ea4f 0383 	mov.w	r3, r3, lsl #2
    1bee:	18d3      	adds	r3, r2, r3
    1bf0:	681b      	ldr	r3, [r3, #0]
    1bf2:	685b      	ldr	r3, [r3, #4]
    1bf4:	4618      	mov	r0, r3
    1bf6:	f000 fe53 	bl	28a0 <btm222_puts>
    1bfa:	f04f 007c 	mov.w	r0, #124	; 0x7c
    1bfe:	f000 fe39 	bl	2874 <btm222_putc>
    1c02:	f240 23c0 	movw	r3, #704	; 0x2c0
    1c06:	f2c1 0300 	movt	r3, #4096	; 0x1000
    1c0a:	681a      	ldr	r2, [r3, #0]
    1c0c:	68bb      	ldr	r3, [r7, #8]
    1c0e:	781b      	ldrb	r3, [r3, #0]
    1c10:	ea4f 0383 	mov.w	r3, r3, lsl #2
    1c14:	18d3      	adds	r3, r2, r3
    1c16:	681b      	ldr	r3, [r3, #0]
    1c18:	7a1b      	ldrb	r3, [r3, #8]
    1c1a:	f103 0330 	add.w	r3, r3, #48	; 0x30
    1c1e:	b2db      	uxtb	r3, r3
    1c20:	4618      	mov	r0, r3
    1c22:	f000 fe27 	bl	2874 <btm222_putc>
    1c26:	f04f 007d 	mov.w	r0, #125	; 0x7d
    1c2a:	f000 fe23 	bl	2874 <btm222_putc>
    1c2e:	f000 bc0b 	b.w	2448 <sensor_cmd_run+0x974>
    1c32:	68bb      	ldr	r3, [r7, #8]
    1c34:	781a      	ldrb	r2, [r3, #0]
    1c36:	f240 2370 	movw	r3, #624	; 0x270
    1c3a:	f2c1 0300 	movt	r3, #4096	; 0x1000
    1c3e:	781b      	ldrb	r3, [r3, #0]
    1c40:	429a      	cmp	r2, r3
    1c42:	f080 8403 	bcs.w	244c <sensor_cmd_run+0x978>
    1c46:	68bb      	ldr	r3, [r7, #8]
    1c48:	f103 0301 	add.w	r3, r3, #1
    1c4c:	781a      	ldrb	r2, [r3, #0]
    1c4e:	f240 23c0 	movw	r3, #704	; 0x2c0
    1c52:	f2c1 0300 	movt	r3, #4096	; 0x1000
    1c56:	6819      	ldr	r1, [r3, #0]
    1c58:	68bb      	ldr	r3, [r7, #8]
    1c5a:	781b      	ldrb	r3, [r3, #0]
    1c5c:	ea4f 0383 	mov.w	r3, r3, lsl #2
    1c60:	18cb      	adds	r3, r1, r3
    1c62:	681b      	ldr	r3, [r3, #0]
    1c64:	7a1b      	ldrb	r3, [r3, #8]
    1c66:	429a      	cmp	r2, r3
    1c68:	f080 83f0 	bcs.w	244c <sensor_cmd_run+0x978>
    1c6c:	f04f 007b 	mov.w	r0, #123	; 0x7b
    1c70:	f000 fe00 	bl	2874 <btm222_putc>
    1c74:	f04f 0063 	mov.w	r0, #99	; 0x63
    1c78:	f000 fdfc 	bl	2874 <btm222_putc>
    1c7c:	f04f 007c 	mov.w	r0, #124	; 0x7c
    1c80:	f000 fdf8 	bl	2874 <btm222_putc>
    1c84:	68bb      	ldr	r3, [r7, #8]
    1c86:	781b      	ldrb	r3, [r3, #0]
    1c88:	f103 0330 	add.w	r3, r3, #48	; 0x30
    1c8c:	b2db      	uxtb	r3, r3
    1c8e:	4618      	mov	r0, r3
    1c90:	f000 fdf0 	bl	2874 <btm222_putc>
    1c94:	f04f 007c 	mov.w	r0, #124	; 0x7c
    1c98:	f000 fdec 	bl	2874 <btm222_putc>
    1c9c:	68bb      	ldr	r3, [r7, #8]
    1c9e:	f103 0301 	add.w	r3, r3, #1
    1ca2:	781b      	ldrb	r3, [r3, #0]
    1ca4:	f103 0330 	add.w	r3, r3, #48	; 0x30
    1ca8:	b2db      	uxtb	r3, r3
    1caa:	4618      	mov	r0, r3
    1cac:	f000 fde2 	bl	2874 <btm222_putc>
    1cb0:	f04f 007c 	mov.w	r0, #124	; 0x7c
    1cb4:	f000 fdde 	bl	2874 <btm222_putc>
    1cb8:	f240 23c0 	movw	r3, #704	; 0x2c0
    1cbc:	f2c1 0300 	movt	r3, #4096	; 0x1000
    1cc0:	681a      	ldr	r2, [r3, #0]
    1cc2:	68bb      	ldr	r3, [r7, #8]
    1cc4:	781b      	ldrb	r3, [r3, #0]
    1cc6:	ea4f 0383 	mov.w	r3, r3, lsl #2
    1cca:	18d3      	adds	r3, r2, r3
    1ccc:	6819      	ldr	r1, [r3, #0]
    1cce:	68bb      	ldr	r3, [r7, #8]
    1cd0:	f103 0301 	add.w	r3, r3, #1
    1cd4:	781b      	ldrb	r3, [r3, #0]
    1cd6:	461a      	mov	r2, r3
    1cd8:	4613      	mov	r3, r2
    1cda:	ea4f 0383 	mov.w	r3, r3, lsl #2
    1cde:	189b      	adds	r3, r3, r2
    1ce0:	ea4f 1303 	mov.w	r3, r3, lsl #4
    1ce4:	18cb      	adds	r3, r1, r3
    1ce6:	f103 0328 	add.w	r3, r3, #40	; 0x28
    1cea:	681b      	ldr	r3, [r3, #0]
    1cec:	4618      	mov	r0, r3
    1cee:	f000 fdd7 	bl	28a0 <btm222_puts>
    1cf2:	f04f 007c 	mov.w	r0, #124	; 0x7c
    1cf6:	f000 fdbd 	bl	2874 <btm222_putc>
    1cfa:	f240 23c0 	movw	r3, #704	; 0x2c0
    1cfe:	f2c1 0300 	movt	r3, #4096	; 0x1000
    1d02:	681a      	ldr	r2, [r3, #0]
    1d04:	68bb      	ldr	r3, [r7, #8]
    1d06:	781b      	ldrb	r3, [r3, #0]
    1d08:	ea4f 0383 	mov.w	r3, r3, lsl #2
    1d0c:	18d3      	adds	r3, r2, r3
    1d0e:	6819      	ldr	r1, [r3, #0]
    1d10:	68bb      	ldr	r3, [r7, #8]
    1d12:	f103 0301 	add.w	r3, r3, #1
    1d16:	781b      	ldrb	r3, [r3, #0]
    1d18:	461a      	mov	r2, r3
    1d1a:	4613      	mov	r3, r2
    1d1c:	ea4f 0383 	mov.w	r3, r3, lsl #2
    1d20:	189b      	adds	r3, r3, r2
    1d22:	ea4f 1303 	mov.w	r3, r3, lsl #4
    1d26:	18cb      	adds	r3, r1, r3
    1d28:	f103 0360 	add.w	r3, r3, #96	; 0x60
    1d2c:	785b      	ldrb	r3, [r3, #1]
    1d2e:	f103 0330 	add.w	r3, r3, #48	; 0x30
    1d32:	b2db      	uxtb	r3, r3
    1d34:	4618      	mov	r0, r3
    1d36:	f000 fd9d 	bl	2874 <btm222_putc>
    1d3a:	f04f 007c 	mov.w	r0, #124	; 0x7c
    1d3e:	f000 fd99 	bl	2874 <btm222_putc>
    1d42:	f240 23c0 	movw	r3, #704	; 0x2c0
    1d46:	f2c1 0300 	movt	r3, #4096	; 0x1000
    1d4a:	681a      	ldr	r2, [r3, #0]
    1d4c:	68bb      	ldr	r3, [r7, #8]
    1d4e:	781b      	ldrb	r3, [r3, #0]
    1d50:	ea4f 0383 	mov.w	r3, r3, lsl #2
    1d54:	18d3      	adds	r3, r2, r3
    1d56:	6819      	ldr	r1, [r3, #0]
    1d58:	68bb      	ldr	r3, [r7, #8]
    1d5a:	f103 0301 	add.w	r3, r3, #1
    1d5e:	781b      	ldrb	r3, [r3, #0]
    1d60:	461a      	mov	r2, r3
    1d62:	4613      	mov	r3, r2
    1d64:	ea4f 0383 	mov.w	r3, r3, lsl #2
    1d68:	189b      	adds	r3, r3, r2
    1d6a:	ea4f 1303 	mov.w	r3, r3, lsl #4
    1d6e:	18cb      	adds	r3, r1, r3
    1d70:	f103 0360 	add.w	r3, r3, #96	; 0x60
    1d74:	781b      	ldrb	r3, [r3, #0]
    1d76:	f103 0330 	add.w	r3, r3, #48	; 0x30
    1d7a:	b2db      	uxtb	r3, r3
    1d7c:	4618      	mov	r0, r3
    1d7e:	f000 fd79 	bl	2874 <btm222_putc>
    1d82:	f04f 007c 	mov.w	r0, #124	; 0x7c
    1d86:	f000 fd75 	bl	2874 <btm222_putc>
    1d8a:	f240 23c0 	movw	r3, #704	; 0x2c0
    1d8e:	f2c1 0300 	movt	r3, #4096	; 0x1000
    1d92:	681a      	ldr	r2, [r3, #0]
    1d94:	68bb      	ldr	r3, [r7, #8]
    1d96:	781b      	ldrb	r3, [r3, #0]
    1d98:	ea4f 0383 	mov.w	r3, r3, lsl #2
    1d9c:	18d3      	adds	r3, r2, r3
    1d9e:	6819      	ldr	r1, [r3, #0]
    1da0:	68bb      	ldr	r3, [r7, #8]
    1da2:	f103 0301 	add.w	r3, r3, #1
    1da6:	781b      	ldrb	r3, [r3, #0]
    1da8:	461a      	mov	r2, r3
    1daa:	4613      	mov	r3, r2
    1dac:	ea4f 0383 	mov.w	r3, r3, lsl #2
    1db0:	189b      	adds	r3, r3, r2
    1db2:	ea4f 1303 	mov.w	r3, r3, lsl #4
    1db6:	18cb      	adds	r3, r1, r3
    1db8:	f103 0328 	add.w	r3, r3, #40	; 0x28
    1dbc:	791b      	ldrb	r3, [r3, #4]
    1dbe:	f103 0330 	add.w	r3, r3, #48	; 0x30
    1dc2:	b2db      	uxtb	r3, r3
    1dc4:	4618      	mov	r0, r3
    1dc6:	f000 fd55 	bl	2874 <btm222_putc>
    1dca:	f04f 0300 	mov.w	r3, #0
    1dce:	f887 302f 	strb.w	r3, [r7, #47]	; 0x2f
    1dd2:	e0ab      	b.n	1f2c <sensor_cmd_run+0x458>
    1dd4:	f04f 007c 	mov.w	r0, #124	; 0x7c
    1dd8:	f000 fd4c 	bl	2874 <btm222_putc>
    1ddc:	f240 23c0 	movw	r3, #704	; 0x2c0
    1de0:	f2c1 0300 	movt	r3, #4096	; 0x1000
    1de4:	681a      	ldr	r2, [r3, #0]
    1de6:	68bb      	ldr	r3, [r7, #8]
    1de8:	781b      	ldrb	r3, [r3, #0]
    1dea:	ea4f 0383 	mov.w	r3, r3, lsl #2
    1dee:	18d3      	adds	r3, r2, r3
    1df0:	681c      	ldr	r4, [r3, #0]
    1df2:	68bb      	ldr	r3, [r7, #8]
    1df4:	f103 0301 	add.w	r3, r3, #1
    1df8:	781b      	ldrb	r3, [r3, #0]
    1dfa:	4619      	mov	r1, r3
    1dfc:	f897 302f 	ldrb.w	r3, [r7, #47]	; 0x2f
    1e00:	4638      	mov	r0, r7
    1e02:	461a      	mov	r2, r3
    1e04:	ea4f 0242 	mov.w	r2, r2, lsl #1
    1e08:	18d2      	adds	r2, r2, r3
    1e0a:	ea4f 0382 	mov.w	r3, r2, lsl #2
    1e0e:	461a      	mov	r2, r3
    1e10:	460b      	mov	r3, r1
    1e12:	ea4f 0383 	mov.w	r3, r3, lsl #2
    1e16:	185b      	adds	r3, r3, r1
    1e18:	ea4f 1303 	mov.w	r3, r3, lsl #4
    1e1c:	18d3      	adds	r3, r2, r3
    1e1e:	18e3      	adds	r3, r4, r3
    1e20:	f103 0334 	add.w	r3, r3, #52	; 0x34
    1e24:	6819      	ldr	r1, [r3, #0]
    1e26:	f000 fbf9 	bl	261c <sensor_encode>
    1e2a:	f107 0110 	add.w	r1, r7, #16
    1e2e:	463a      	mov	r2, r7
    1e30:	f04f 0305 	mov.w	r3, #5
    1e34:	4608      	mov	r0, r1
    1e36:	4611      	mov	r1, r2
    1e38:	461a      	mov	r2, r3
    1e3a:	f002 fbe7 	bl	460c <memcpy>
    1e3e:	f107 0310 	add.w	r3, r7, #16
    1e42:	4618      	mov	r0, r3
    1e44:	f04f 0105 	mov.w	r1, #5
    1e48:	f000 fd00 	bl	284c <btm222_send>
    1e4c:	f04f 007c 	mov.w	r0, #124	; 0x7c
    1e50:	f000 fd10 	bl	2874 <btm222_putc>
    1e54:	f240 23c0 	movw	r3, #704	; 0x2c0
    1e58:	f2c1 0300 	movt	r3, #4096	; 0x1000
    1e5c:	681a      	ldr	r2, [r3, #0]
    1e5e:	68bb      	ldr	r3, [r7, #8]
    1e60:	781b      	ldrb	r3, [r3, #0]
    1e62:	ea4f 0383 	mov.w	r3, r3, lsl #2
    1e66:	18d3      	adds	r3, r2, r3
    1e68:	681c      	ldr	r4, [r3, #0]
    1e6a:	68bb      	ldr	r3, [r7, #8]
    1e6c:	f103 0301 	add.w	r3, r3, #1
    1e70:	781b      	ldrb	r3, [r3, #0]
    1e72:	4619      	mov	r1, r3
    1e74:	f897 302f 	ldrb.w	r3, [r7, #47]	; 0x2f
    1e78:	4638      	mov	r0, r7
    1e7a:	461a      	mov	r2, r3
    1e7c:	ea4f 0242 	mov.w	r2, r2, lsl #1
    1e80:	18d2      	adds	r2, r2, r3
    1e82:	ea4f 0382 	mov.w	r3, r2, lsl #2
    1e86:	461a      	mov	r2, r3
    1e88:	460b      	mov	r3, r1
    1e8a:	ea4f 0383 	mov.w	r3, r3, lsl #2
    1e8e:	185b      	adds	r3, r3, r1
    1e90:	ea4f 1303 	mov.w	r3, r3, lsl #4
    1e94:	18d3      	adds	r3, r2, r3
    1e96:	18e3      	adds	r3, r4, r3
    1e98:	f103 0330 	add.w	r3, r3, #48	; 0x30
    1e9c:	6819      	ldr	r1, [r3, #0]
    1e9e:	f000 fbbd 	bl	261c <sensor_encode>
    1ea2:	f107 0110 	add.w	r1, r7, #16
    1ea6:	463a      	mov	r2, r7
    1ea8:	f04f 0305 	mov.w	r3, #5
    1eac:	4608      	mov	r0, r1
    1eae:	4611      	mov	r1, r2
    1eb0:	461a      	mov	r2, r3
    1eb2:	f002 fbab 	bl	460c <memcpy>
    1eb6:	f107 0310 	add.w	r3, r7, #16
    1eba:	4618      	mov	r0, r3
    1ebc:	f04f 0105 	mov.w	r1, #5
    1ec0:	f000 fcc4 	bl	284c <btm222_send>
    1ec4:	f04f 007c 	mov.w	r0, #124	; 0x7c
    1ec8:	f000 fcd4 	bl	2874 <btm222_putc>
    1ecc:	f240 23c0 	movw	r3, #704	; 0x2c0
    1ed0:	f2c1 0300 	movt	r3, #4096	; 0x1000
    1ed4:	681a      	ldr	r2, [r3, #0]
    1ed6:	68bb      	ldr	r3, [r7, #8]
    1ed8:	781b      	ldrb	r3, [r3, #0]
    1eda:	ea4f 0383 	mov.w	r3, r3, lsl #2
    1ede:	18d3      	adds	r3, r2, r3
    1ee0:	6818      	ldr	r0, [r3, #0]
    1ee2:	68bb      	ldr	r3, [r7, #8]
    1ee4:	f103 0301 	add.w	r3, r3, #1
    1ee8:	781b      	ldrb	r3, [r3, #0]
    1eea:	4619      	mov	r1, r3
    1eec:	f897 302f 	ldrb.w	r3, [r7, #47]	; 0x2f
    1ef0:	461a      	mov	r2, r3
    1ef2:	ea4f 0242 	mov.w	r2, r2, lsl #1
    1ef6:	18d2      	adds	r2, r2, r3
    1ef8:	ea4f 0382 	mov.w	r3, r2, lsl #2
    1efc:	461a      	mov	r2, r3
    1efe:	460b      	mov	r3, r1
    1f00:	ea4f 0383 	mov.w	r3, r3, lsl #2
    1f04:	185b      	adds	r3, r3, r1
    1f06:	ea4f 1303 	mov.w	r3, r3, lsl #4
    1f0a:	18d3      	adds	r3, r2, r3
    1f0c:	18c3      	adds	r3, r0, r3
    1f0e:	f103 0338 	add.w	r3, r3, #56	; 0x38
    1f12:	781b      	ldrb	r3, [r3, #0]
    1f14:	f103 0330 	add.w	r3, r3, #48	; 0x30
    1f18:	b2db      	uxtb	r3, r3
    1f1a:	4618      	mov	r0, r3
    1f1c:	f000 fcaa 	bl	2874 <btm222_putc>
    1f20:	f897 302f 	ldrb.w	r3, [r7, #47]	; 0x2f
    1f24:	f103 0301 	add.w	r3, r3, #1
    1f28:	f887 302f 	strb.w	r3, [r7, #47]	; 0x2f
    1f2c:	f240 23c0 	movw	r3, #704	; 0x2c0
    1f30:	f2c1 0300 	movt	r3, #4096	; 0x1000
    1f34:	681a      	ldr	r2, [r3, #0]
    1f36:	68bb      	ldr	r3, [r7, #8]
    1f38:	781b      	ldrb	r3, [r3, #0]
    1f3a:	ea4f 0383 	mov.w	r3, r3, lsl #2
    1f3e:	18d3      	adds	r3, r2, r3
    1f40:	6819      	ldr	r1, [r3, #0]
    1f42:	68bb      	ldr	r3, [r7, #8]
    1f44:	f103 0301 	add.w	r3, r3, #1
    1f48:	781b      	ldrb	r3, [r3, #0]
    1f4a:	461a      	mov	r2, r3
    1f4c:	4613      	mov	r3, r2
    1f4e:	ea4f 0383 	mov.w	r3, r3, lsl #2
    1f52:	189b      	adds	r3, r3, r2
    1f54:	ea4f 1303 	mov.w	r3, r3, lsl #4
    1f58:	18cb      	adds	r3, r1, r3
    1f5a:	f103 0328 	add.w	r3, r3, #40	; 0x28
    1f5e:	791b      	ldrb	r3, [r3, #4]
    1f60:	f897 202f 	ldrb.w	r2, [r7, #47]	; 0x2f
    1f64:	429a      	cmp	r2, r3
    1f66:	f4ff af35 	bcc.w	1dd4 <sensor_cmd_run+0x300>
    1f6a:	f04f 007d 	mov.w	r0, #125	; 0x7d
    1f6e:	f000 fc81 	bl	2874 <btm222_putc>
    1f72:	e26b      	b.n	244c <sensor_cmd_run+0x978>
    1f74:	68bb      	ldr	r3, [r7, #8]
    1f76:	781a      	ldrb	r2, [r3, #0]
    1f78:	f240 2370 	movw	r3, #624	; 0x270
    1f7c:	f2c1 0300 	movt	r3, #4096	; 0x1000
    1f80:	781b      	ldrb	r3, [r3, #0]
    1f82:	429a      	cmp	r2, r3
    1f84:	f080 8264 	bcs.w	2450 <sensor_cmd_run+0x97c>
    1f88:	68bb      	ldr	r3, [r7, #8]
    1f8a:	f103 0301 	add.w	r3, r3, #1
    1f8e:	781a      	ldrb	r2, [r3, #0]
    1f90:	f240 23c0 	movw	r3, #704	; 0x2c0
    1f94:	f2c1 0300 	movt	r3, #4096	; 0x1000
    1f98:	6819      	ldr	r1, [r3, #0]
    1f9a:	68bb      	ldr	r3, [r7, #8]
    1f9c:	781b      	ldrb	r3, [r3, #0]
    1f9e:	ea4f 0383 	mov.w	r3, r3, lsl #2
    1fa2:	18cb      	adds	r3, r1, r3
    1fa4:	681b      	ldr	r3, [r3, #0]
    1fa6:	7a1b      	ldrb	r3, [r3, #8]
    1fa8:	429a      	cmp	r2, r3
    1faa:	f080 8251 	bcs.w	2450 <sensor_cmd_run+0x97c>
    1fae:	f240 23c0 	movw	r3, #704	; 0x2c0
    1fb2:	f2c1 0300 	movt	r3, #4096	; 0x1000
    1fb6:	681a      	ldr	r2, [r3, #0]
    1fb8:	68bb      	ldr	r3, [r7, #8]
    1fba:	781b      	ldrb	r3, [r3, #0]
    1fbc:	ea4f 0383 	mov.w	r3, r3, lsl #2
    1fc0:	18d3      	adds	r3, r2, r3
    1fc2:	6819      	ldr	r1, [r3, #0]
    1fc4:	68bb      	ldr	r3, [r7, #8]
    1fc6:	f103 0301 	add.w	r3, r3, #1
    1fca:	781b      	ldrb	r3, [r3, #0]
    1fcc:	461a      	mov	r2, r3
    1fce:	4613      	mov	r3, r2
    1fd0:	ea4f 0383 	mov.w	r3, r3, lsl #2
    1fd4:	189b      	adds	r3, r3, r2
    1fd6:	ea4f 1303 	mov.w	r3, r3, lsl #4
    1fda:	f103 0360 	add.w	r3, r3, #96	; 0x60
    1fde:	18cb      	adds	r3, r1, r3
    1fe0:	f103 0204 	add.w	r2, r3, #4
    1fe4:	f107 0318 	add.w	r3, r7, #24
    1fe8:	4610      	mov	r0, r2
    1fea:	4619      	mov	r1, r3
    1fec:	f000 fa42 	bl	2474 <sensor_unit_string>
    1ff0:	f04f 007b 	mov.w	r0, #123	; 0x7b
    1ff4:	f000 fc3e 	bl	2874 <btm222_putc>
    1ff8:	f04f 0064 	mov.w	r0, #100	; 0x64
    1ffc:	f000 fc3a 	bl	2874 <btm222_putc>
    2000:	f04f 007c 	mov.w	r0, #124	; 0x7c
    2004:	f000 fc36 	bl	2874 <btm222_putc>
    2008:	68bb      	ldr	r3, [r7, #8]
    200a:	781b      	ldrb	r3, [r3, #0]
    200c:	f103 0330 	add.w	r3, r3, #48	; 0x30
    2010:	b2db      	uxtb	r3, r3
    2012:	4618      	mov	r0, r3
    2014:	f000 fc2e 	bl	2874 <btm222_putc>
    2018:	f04f 007c 	mov.w	r0, #124	; 0x7c
    201c:	f000 fc2a 	bl	2874 <btm222_putc>
    2020:	68bb      	ldr	r3, [r7, #8]
    2022:	f103 0301 	add.w	r3, r3, #1
    2026:	781b      	ldrb	r3, [r3, #0]
    2028:	f103 0330 	add.w	r3, r3, #48	; 0x30
    202c:	b2db      	uxtb	r3, r3
    202e:	4618      	mov	r0, r3
    2030:	f000 fc20 	bl	2874 <btm222_putc>
    2034:	f04f 007c 	mov.w	r0, #124	; 0x7c
    2038:	f000 fc1c 	bl	2874 <btm222_putc>
    203c:	f240 23c0 	movw	r3, #704	; 0x2c0
    2040:	f2c1 0300 	movt	r3, #4096	; 0x1000
    2044:	681a      	ldr	r2, [r3, #0]
    2046:	68bb      	ldr	r3, [r7, #8]
    2048:	781b      	ldrb	r3, [r3, #0]
    204a:	ea4f 0383 	mov.w	r3, r3, lsl #2
    204e:	18d3      	adds	r3, r2, r3
    2050:	6819      	ldr	r1, [r3, #0]
    2052:	68bb      	ldr	r3, [r7, #8]
    2054:	f103 0301 	add.w	r3, r3, #1
    2058:	781b      	ldrb	r3, [r3, #0]
    205a:	461a      	mov	r2, r3
    205c:	4613      	mov	r3, r2
    205e:	ea4f 0383 	mov.w	r3, r3, lsl #2
    2062:	189b      	adds	r3, r3, r2
    2064:	ea4f 1303 	mov.w	r3, r3, lsl #4
    2068:	18cb      	adds	r3, r1, r3
    206a:	f103 0364 	add.w	r3, r3, #100	; 0x64
    206e:	681b      	ldr	r3, [r3, #0]
    2070:	4618      	mov	r0, r3
    2072:	f000 fc15 	bl	28a0 <btm222_puts>
    2076:	f04f 007c 	mov.w	r0, #124	; 0x7c
    207a:	f000 fbfb 	bl	2874 <btm222_putc>
    207e:	f240 23c0 	movw	r3, #704	; 0x2c0
    2082:	f2c1 0300 	movt	r3, #4096	; 0x1000
    2086:	681a      	ldr	r2, [r3, #0]
    2088:	68bb      	ldr	r3, [r7, #8]
    208a:	781b      	ldrb	r3, [r3, #0]
    208c:	ea4f 0383 	mov.w	r3, r3, lsl #2
    2090:	18d3      	adds	r3, r2, r3
    2092:	6819      	ldr	r1, [r3, #0]
    2094:	68bb      	ldr	r3, [r7, #8]
    2096:	f103 0301 	add.w	r3, r3, #1
    209a:	781b      	ldrb	r3, [r3, #0]
    209c:	461a      	mov	r2, r3
    209e:	4613      	mov	r3, r2
    20a0:	ea4f 0383 	mov.w	r3, r3, lsl #2
    20a4:	189b      	adds	r3, r3, r2
    20a6:	ea4f 1303 	mov.w	r3, r3, lsl #4
    20aa:	18cb      	adds	r3, r1, r3
    20ac:	f103 0368 	add.w	r3, r3, #104	; 0x68
    20b0:	681b      	ldr	r3, [r3, #0]
    20b2:	4618      	mov	r0, r3
    20b4:	f000 fbf4 	bl	28a0 <btm222_puts>
    20b8:	f04f 007c 	mov.w	r0, #124	; 0x7c
    20bc:	f000 fbda 	bl	2874 <btm222_putc>
    20c0:	f240 23c0 	movw	r3, #704	; 0x2c0
    20c4:	f2c1 0300 	movt	r3, #4096	; 0x1000
    20c8:	681a      	ldr	r2, [r3, #0]
    20ca:	68bb      	ldr	r3, [r7, #8]
    20cc:	781b      	ldrb	r3, [r3, #0]
    20ce:	ea4f 0383 	mov.w	r3, r3, lsl #2
    20d2:	18d3      	adds	r3, r2, r3
    20d4:	6819      	ldr	r1, [r3, #0]
    20d6:	68bb      	ldr	r3, [r7, #8]
    20d8:	f103 0301 	add.w	r3, r3, #1
    20dc:	781b      	ldrb	r3, [r3, #0]
    20de:	461a      	mov	r2, r3
    20e0:	4613      	mov	r3, r2
    20e2:	ea4f 0383 	mov.w	r3, r3, lsl #2
    20e6:	189b      	adds	r3, r3, r2
    20e8:	ea4f 1303 	mov.w	r3, r3, lsl #4
    20ec:	18cb      	adds	r3, r1, r3
    20ee:	f103 0368 	add.w	r3, r3, #104	; 0x68
    20f2:	791b      	ldrb	r3, [r3, #4]
    20f4:	f103 0330 	add.w	r3, r3, #48	; 0x30
    20f8:	b2db      	uxtb	r3, r3
    20fa:	4618      	mov	r0, r3
    20fc:	f000 fbba 	bl	2874 <btm222_putc>
    2100:	f04f 007c 	mov.w	r0, #124	; 0x7c
    2104:	f000 fbb6 	bl	2874 <btm222_putc>
    2108:	f107 0318 	add.w	r3, r7, #24
    210c:	4618      	mov	r0, r3
    210e:	f04f 0114 	mov.w	r1, #20
    2112:	f000 fb9b 	bl	284c <btm222_send>
    2116:	f04f 007d 	mov.w	r0, #125	; 0x7d
    211a:	f000 fbab 	bl	2874 <btm222_putc>
    211e:	e197      	b.n	2450 <sensor_cmd_run+0x97c>
    2120:	68bb      	ldr	r3, [r7, #8]
    2122:	781a      	ldrb	r2, [r3, #0]
    2124:	f240 2370 	movw	r3, #624	; 0x270
    2128:	f2c1 0300 	movt	r3, #4096	; 0x1000
    212c:	781b      	ldrb	r3, [r3, #0]
    212e:	429a      	cmp	r2, r3
    2130:	f080 8190 	bcs.w	2454 <sensor_cmd_run+0x980>
    2134:	68bb      	ldr	r3, [r7, #8]
    2136:	f103 0301 	add.w	r3, r3, #1
    213a:	781a      	ldrb	r2, [r3, #0]
    213c:	f240 23c0 	movw	r3, #704	; 0x2c0
    2140:	f2c1 0300 	movt	r3, #4096	; 0x1000
    2144:	6819      	ldr	r1, [r3, #0]
    2146:	68bb      	ldr	r3, [r7, #8]
    2148:	781b      	ldrb	r3, [r3, #0]
    214a:	ea4f 0383 	mov.w	r3, r3, lsl #2
    214e:	18cb      	adds	r3, r1, r3
    2150:	681b      	ldr	r3, [r3, #0]
    2152:	7a1b      	ldrb	r3, [r3, #8]
    2154:	429a      	cmp	r2, r3
    2156:	f080 817d 	bcs.w	2454 <sensor_cmd_run+0x980>
    215a:	f240 23c0 	movw	r3, #704	; 0x2c0
    215e:	f2c1 0300 	movt	r3, #4096	; 0x1000
    2162:	681a      	ldr	r2, [r3, #0]
    2164:	68bb      	ldr	r3, [r7, #8]
    2166:	781b      	ldrb	r3, [r3, #0]
    2168:	ea4f 0383 	mov.w	r3, r3, lsl #2
    216c:	18d3      	adds	r3, r2, r3
    216e:	681b      	ldr	r3, [r3, #0]
    2170:	6a5b      	ldr	r3, [r3, #36]	; 0x24
    2172:	68ba      	ldr	r2, [r7, #8]
    2174:	f102 0201 	add.w	r2, r2, #1
    2178:	7812      	ldrb	r2, [r2, #0]
    217a:	4610      	mov	r0, r2
    217c:	4798      	blx	r3
    217e:	f04f 007b 	mov.w	r0, #123	; 0x7b
    2182:	f000 fb77 	bl	2874 <btm222_putc>
    2186:	f04f 0065 	mov.w	r0, #101	; 0x65
    218a:	f000 fb73 	bl	2874 <btm222_putc>
    218e:	f04f 007c 	mov.w	r0, #124	; 0x7c
    2192:	f000 fb6f 	bl	2874 <btm222_putc>
    2196:	68bb      	ldr	r3, [r7, #8]
    2198:	781b      	ldrb	r3, [r3, #0]
    219a:	f103 0330 	add.w	r3, r3, #48	; 0x30
    219e:	b2db      	uxtb	r3, r3
    21a0:	4618      	mov	r0, r3
    21a2:	f000 fb67 	bl	2874 <btm222_putc>
    21a6:	f04f 007c 	mov.w	r0, #124	; 0x7c
    21aa:	f000 fb63 	bl	2874 <btm222_putc>
    21ae:	68bb      	ldr	r3, [r7, #8]
    21b0:	f103 0301 	add.w	r3, r3, #1
    21b4:	781b      	ldrb	r3, [r3, #0]
    21b6:	f103 0330 	add.w	r3, r3, #48	; 0x30
    21ba:	b2db      	uxtb	r3, r3
    21bc:	4618      	mov	r0, r3
    21be:	f000 fb59 	bl	2874 <btm222_putc>
    21c2:	f04f 007c 	mov.w	r0, #124	; 0x7c
    21c6:	f000 fb55 	bl	2874 <btm222_putc>
    21ca:	f240 23c0 	movw	r3, #704	; 0x2c0
    21ce:	f2c1 0300 	movt	r3, #4096	; 0x1000
    21d2:	681a      	ldr	r2, [r3, #0]
    21d4:	68bb      	ldr	r3, [r7, #8]
    21d6:	781b      	ldrb	r3, [r3, #0]
    21d8:	ea4f 0383 	mov.w	r3, r3, lsl #2
    21dc:	18d3      	adds	r3, r2, r3
    21de:	681b      	ldr	r3, [r3, #0]
    21e0:	691a      	ldr	r2, [r3, #16]
    21e2:	68bb      	ldr	r3, [r7, #8]
    21e4:	f103 0301 	add.w	r3, r3, #1
    21e8:	781b      	ldrb	r3, [r3, #0]
    21ea:	18d3      	adds	r3, r2, r3
    21ec:	781b      	ldrb	r3, [r3, #0]
    21ee:	f103 0330 	add.w	r3, r3, #48	; 0x30
    21f2:	b2db      	uxtb	r3, r3
    21f4:	4618      	mov	r0, r3
    21f6:	f000 fb3d 	bl	2874 <btm222_putc>
    21fa:	f04f 007c 	mov.w	r0, #124	; 0x7c
    21fe:	f000 fb39 	bl	2874 <btm222_putc>
    2202:	f240 23c0 	movw	r3, #704	; 0x2c0
    2206:	f2c1 0300 	movt	r3, #4096	; 0x1000
    220a:	681a      	ldr	r2, [r3, #0]
    220c:	68bb      	ldr	r3, [r7, #8]
    220e:	781b      	ldrb	r3, [r3, #0]
    2210:	ea4f 0383 	mov.w	r3, r3, lsl #2
    2214:	18d3      	adds	r3, r2, r3
    2216:	6819      	ldr	r1, [r3, #0]
    2218:	68bb      	ldr	r3, [r7, #8]
    221a:	f103 0301 	add.w	r3, r3, #1
    221e:	781b      	ldrb	r3, [r3, #0]
    2220:	461a      	mov	r2, r3
    2222:	4613      	mov	r3, r2
    2224:	ea4f 0383 	mov.w	r3, r3, lsl #2
    2228:	189b      	adds	r3, r3, r2
    222a:	ea4f 1303 	mov.w	r3, r3, lsl #4
    222e:	18cb      	adds	r3, r1, r3
    2230:	f103 0360 	add.w	r3, r3, #96	; 0x60
    2234:	781b      	ldrb	r3, [r3, #0]
    2236:	f103 0330 	add.w	r3, r3, #48	; 0x30
    223a:	b2db      	uxtb	r3, r3
    223c:	4618      	mov	r0, r3
    223e:	f000 fb19 	bl	2874 <btm222_putc>
    2242:	f04f 0300 	mov.w	r3, #0
    2246:	f887 302f 	strb.w	r3, [r7, #47]	; 0x2f
    224a:	e030      	b.n	22ae <sensor_cmd_run+0x7da>
    224c:	f04f 007c 	mov.w	r0, #124	; 0x7c
    2250:	f000 fb10 	bl	2874 <btm222_putc>
    2254:	f240 23c0 	movw	r3, #704	; 0x2c0
    2258:	f2c1 0300 	movt	r3, #4096	; 0x1000
    225c:	681a      	ldr	r2, [r3, #0]
    225e:	68bb      	ldr	r3, [r7, #8]
    2260:	781b      	ldrb	r3, [r3, #0]
    2262:	ea4f 0383 	mov.w	r3, r3, lsl #2
    2266:	18d3      	adds	r3, r2, r3
    2268:	681b      	ldr	r3, [r3, #0]
    226a:	68da      	ldr	r2, [r3, #12]
    226c:	f897 302f 	ldrb.w	r3, [r7, #47]	; 0x2f
    2270:	ea4f 0383 	mov.w	r3, r3, lsl #2
    2274:	18d3      	adds	r3, r2, r3
    2276:	463a      	mov	r2, r7
    2278:	4610      	mov	r0, r2
    227a:	6819      	ldr	r1, [r3, #0]
    227c:	f000 f9ce 	bl	261c <sensor_encode>
    2280:	f107 0110 	add.w	r1, r7, #16
    2284:	463a      	mov	r2, r7
    2286:	f04f 0305 	mov.w	r3, #5
    228a:	4608      	mov	r0, r1
    228c:	4611      	mov	r1, r2
    228e:	461a      	mov	r2, r3
    2290:	f002 f9bc 	bl	460c <memcpy>
    2294:	f107 0310 	add.w	r3, r7, #16
    2298:	4618      	mov	r0, r3
    229a:	f04f 0105 	mov.w	r1, #5
    229e:	f000 fad5 	bl	284c <btm222_send>
    22a2:	f897 302f 	ldrb.w	r3, [r7, #47]	; 0x2f
    22a6:	f103 0301 	add.w	r3, r3, #1
    22aa:	f887 302f 	strb.w	r3, [r7, #47]	; 0x2f
    22ae:	f240 23c0 	movw	r3, #704	; 0x2c0
    22b2:	f2c1 0300 	movt	r3, #4096	; 0x1000
    22b6:	681a      	ldr	r2, [r3, #0]
    22b8:	68bb      	ldr	r3, [r7, #8]
    22ba:	781b      	ldrb	r3, [r3, #0]
    22bc:	ea4f 0383 	mov.w	r3, r3, lsl #2
    22c0:	18d3      	adds	r3, r2, r3
    22c2:	6819      	ldr	r1, [r3, #0]
    22c4:	68bb      	ldr	r3, [r7, #8]
    22c6:	f103 0301 	add.w	r3, r3, #1
    22ca:	781b      	ldrb	r3, [r3, #0]
    22cc:	461a      	mov	r2, r3
    22ce:	4613      	mov	r3, r2
    22d0:	ea4f 0383 	mov.w	r3, r3, lsl #2
    22d4:	189b      	adds	r3, r3, r2
    22d6:	ea4f 1303 	mov.w	r3, r3, lsl #4
    22da:	18cb      	adds	r3, r1, r3
    22dc:	f103 0360 	add.w	r3, r3, #96	; 0x60
    22e0:	781b      	ldrb	r3, [r3, #0]
    22e2:	f897 202f 	ldrb.w	r2, [r7, #47]	; 0x2f
    22e6:	429a      	cmp	r2, r3
    22e8:	d3b0      	bcc.n	224c <sensor_cmd_run+0x778>
    22ea:	f04f 007d 	mov.w	r0, #125	; 0x7d
    22ee:	f000 fac1 	bl	2874 <btm222_putc>
    22f2:	e0af      	b.n	2454 <sensor_cmd_run+0x980>
    22f4:	68bb      	ldr	r3, [r7, #8]
    22f6:	781a      	ldrb	r2, [r3, #0]
    22f8:	f240 2370 	movw	r3, #624	; 0x270
    22fc:	f2c1 0300 	movt	r3, #4096	; 0x1000
    2300:	781b      	ldrb	r3, [r3, #0]
    2302:	429a      	cmp	r2, r3
    2304:	f080 80a8 	bcs.w	2458 <sensor_cmd_run+0x984>
    2308:	68bb      	ldr	r3, [r7, #8]
    230a:	f103 0301 	add.w	r3, r3, #1
    230e:	781a      	ldrb	r2, [r3, #0]
    2310:	f240 23c0 	movw	r3, #704	; 0x2c0
    2314:	f2c1 0300 	movt	r3, #4096	; 0x1000
    2318:	6819      	ldr	r1, [r3, #0]
    231a:	68bb      	ldr	r3, [r7, #8]
    231c:	781b      	ldrb	r3, [r3, #0]
    231e:	ea4f 0383 	mov.w	r3, r3, lsl #2
    2322:	18cb      	adds	r3, r1, r3
    2324:	681b      	ldr	r3, [r3, #0]
    2326:	7a1b      	ldrb	r3, [r3, #8]
    2328:	429a      	cmp	r2, r3
    232a:	f080 8095 	bcs.w	2458 <sensor_cmd_run+0x984>
    232e:	f240 23c0 	movw	r3, #704	; 0x2c0
    2332:	f2c1 0300 	movt	r3, #4096	; 0x1000
    2336:	681a      	ldr	r2, [r3, #0]
    2338:	68bb      	ldr	r3, [r7, #8]
    233a:	781b      	ldrb	r3, [r3, #0]
    233c:	ea4f 0383 	mov.w	r3, r3, lsl #2
    2340:	18d3      	adds	r3, r2, r3
    2342:	681b      	ldr	r3, [r3, #0]
    2344:	6a1b      	ldr	r3, [r3, #32]
    2346:	68ba      	ldr	r2, [r7, #8]
    2348:	f102 0201 	add.w	r2, r2, #1
    234c:	7811      	ldrb	r1, [r2, #0]
    234e:	68ba      	ldr	r2, [r7, #8]
    2350:	f102 0202 	add.w	r2, r2, #2
    2354:	7812      	ldrb	r2, [r2, #0]
    2356:	f1a2 0230 	sub.w	r2, r2, #48	; 0x30
    235a:	b2d2      	uxtb	r2, r2
    235c:	4608      	mov	r0, r1
    235e:	4611      	mov	r1, r2
    2360:	4798      	blx	r3
    2362:	f04f 007b 	mov.w	r0, #123	; 0x7b
    2366:	f000 fa85 	bl	2874 <btm222_putc>
    236a:	f04f 0066 	mov.w	r0, #102	; 0x66
    236e:	f000 fa81 	bl	2874 <btm222_putc>
    2372:	f04f 007c 	mov.w	r0, #124	; 0x7c
    2376:	f000 fa7d 	bl	2874 <btm222_putc>
    237a:	68bb      	ldr	r3, [r7, #8]
    237c:	781b      	ldrb	r3, [r3, #0]
    237e:	f103 0330 	add.w	r3, r3, #48	; 0x30
    2382:	b2db      	uxtb	r3, r3
    2384:	4618      	mov	r0, r3
    2386:	f000 fa75 	bl	2874 <btm222_putc>
    238a:	f04f 007c 	mov.w	r0, #124	; 0x7c
    238e:	f000 fa71 	bl	2874 <btm222_putc>
    2392:	68bb      	ldr	r3, [r7, #8]
    2394:	f103 0301 	add.w	r3, r3, #1
    2398:	781b      	ldrb	r3, [r3, #0]
    239a:	f103 0330 	add.w	r3, r3, #48	; 0x30
    239e:	b2db      	uxtb	r3, r3
    23a0:	4618      	mov	r0, r3
    23a2:	f000 fa67 	bl	2874 <btm222_putc>
    23a6:	f04f 007c 	mov.w	r0, #124	; 0x7c
    23aa:	f000 fa63 	bl	2874 <btm222_putc>
    23ae:	f240 23c0 	movw	r3, #704	; 0x2c0
    23b2:	f2c1 0300 	movt	r3, #4096	; 0x1000
    23b6:	681a      	ldr	r2, [r3, #0]
    23b8:	68bb      	ldr	r3, [r7, #8]
    23ba:	781b      	ldrb	r3, [r3, #0]
    23bc:	ea4f 0383 	mov.w	r3, r3, lsl #2
    23c0:	18d3      	adds	r3, r2, r3
    23c2:	681b      	ldr	r3, [r3, #0]
    23c4:	691a      	ldr	r2, [r3, #16]
    23c6:	68bb      	ldr	r3, [r7, #8]
    23c8:	f103 0301 	add.w	r3, r3, #1
    23cc:	781b      	ldrb	r3, [r3, #0]
    23ce:	18d3      	adds	r3, r2, r3
    23d0:	781b      	ldrb	r3, [r3, #0]
    23d2:	f103 0330 	add.w	r3, r3, #48	; 0x30
    23d6:	b2db      	uxtb	r3, r3
    23d8:	4618      	mov	r0, r3
    23da:	f000 fa4b 	bl	2874 <btm222_putc>
    23de:	f04f 007d 	mov.w	r0, #125	; 0x7d
    23e2:	f000 fa47 	bl	2874 <btm222_putc>
    23e6:	e037      	b.n	2458 <sensor_cmd_run+0x984>
    23e8:	68bb      	ldr	r3, [r7, #8]
    23ea:	781a      	ldrb	r2, [r3, #0]
    23ec:	f240 2370 	movw	r3, #624	; 0x270
    23f0:	f2c1 0300 	movt	r3, #4096	; 0x1000
    23f4:	781b      	ldrb	r3, [r3, #0]
    23f6:	429a      	cmp	r2, r3
    23f8:	d230      	bcs.n	245c <sensor_cmd_run+0x988>
    23fa:	f240 23c0 	movw	r3, #704	; 0x2c0
    23fe:	f2c1 0300 	movt	r3, #4096	; 0x1000
    2402:	681a      	ldr	r2, [r3, #0]
    2404:	68bb      	ldr	r3, [r7, #8]
    2406:	781b      	ldrb	r3, [r3, #0]
    2408:	ea4f 0383 	mov.w	r3, r3, lsl #2
    240c:	18d3      	adds	r3, r2, r3
    240e:	681b      	ldr	r3, [r3, #0]
    2410:	69db      	ldr	r3, [r3, #28]
    2412:	4798      	blx	r3
    2414:	e022      	b.n	245c <sensor_cmd_run+0x988>
    2416:	68bb      	ldr	r3, [r7, #8]
    2418:	781a      	ldrb	r2, [r3, #0]
    241a:	f240 2370 	movw	r3, #624	; 0x270
    241e:	f2c1 0300 	movt	r3, #4096	; 0x1000
    2422:	781b      	ldrb	r3, [r3, #0]
    2424:	429a      	cmp	r2, r3
    2426:	d21b      	bcs.n	2460 <sensor_cmd_run+0x98c>
    2428:	f240 23c0 	movw	r3, #704	; 0x2c0
    242c:	f2c1 0300 	movt	r3, #4096	; 0x1000
    2430:	681a      	ldr	r2, [r3, #0]
    2432:	68bb      	ldr	r3, [r7, #8]
    2434:	781b      	ldrb	r3, [r3, #0]
    2436:	ea4f 0383 	mov.w	r3, r3, lsl #2
    243a:	18d3      	adds	r3, r2, r3
    243c:	681b      	ldr	r3, [r3, #0]
    243e:	699b      	ldr	r3, [r3, #24]
    2440:	4798      	blx	r3
    2442:	e00d      	b.n	2460 <sensor_cmd_run+0x98c>
    2444:	bf00      	nop
    2446:	e00c      	b.n	2462 <sensor_cmd_run+0x98e>
    2448:	bf00      	nop
    244a:	e00a      	b.n	2462 <sensor_cmd_run+0x98e>
    244c:	bf00      	nop
    244e:	e008      	b.n	2462 <sensor_cmd_run+0x98e>
    2450:	bf00      	nop
    2452:	e006      	b.n	2462 <sensor_cmd_run+0x98e>
    2454:	bf00      	nop
    2456:	e004      	b.n	2462 <sensor_cmd_run+0x98e>
    2458:	bf00      	nop
    245a:	e002      	b.n	2462 <sensor_cmd_run+0x98e>
    245c:	bf00      	nop
    245e:	e000      	b.n	2462 <sensor_cmd_run+0x98e>
    2460:	bf00      	nop
    2462:	f04f 000a 	mov.w	r0, #10
    2466:	f000 fa05 	bl	2874 <btm222_putc>
    246a:	f107 0734 	add.w	r7, r7, #52	; 0x34
    246e:	46bd      	mov	sp, r7
    2470:	bd90      	pop	{r4, r7, pc}
    2472:	bf00      	nop

00002474 <sensor_unit_string>:
    2474:	b480      	push	{r7}
    2476:	b085      	sub	sp, #20
    2478:	af00      	add	r7, sp, #0
    247a:	6078      	str	r0, [r7, #4]
    247c:	6039      	str	r1, [r7, #0]
    247e:	f04f 0300 	mov.w	r3, #0
    2482:	73fb      	strb	r3, [r7, #15]
    2484:	e0a7      	b.n	25d6 <sensor_unit_string+0x162>
    2486:	7bfa      	ldrb	r2, [r7, #15]
    2488:	4613      	mov	r3, r2
    248a:	ea4f 0383 	mov.w	r3, r3, lsl #2
    248e:	189b      	adds	r3, r3, r2
    2490:	683a      	ldr	r2, [r7, #0]
    2492:	18d2      	adds	r2, r2, r3
    2494:	7bfb      	ldrb	r3, [r7, #15]
    2496:	6879      	ldr	r1, [r7, #4]
    2498:	f103 0304 	add.w	r3, r3, #4
    249c:	ea4f 0343 	mov.w	r3, r3, lsl #1
    24a0:	18cb      	adds	r3, r1, r3
    24a2:	785b      	ldrb	r3, [r3, #1]
    24a4:	f103 0330 	add.w	r3, r3, #48	; 0x30
    24a8:	b2db      	uxtb	r3, r3
    24aa:	7013      	strb	r3, [r2, #0]
    24ac:	7bfa      	ldrb	r2, [r7, #15]
    24ae:	4613      	mov	r3, r2
    24b0:	ea4f 0383 	mov.w	r3, r3, lsl #2
    24b4:	189b      	adds	r3, r3, r2
    24b6:	f103 0301 	add.w	r3, r3, #1
    24ba:	683a      	ldr	r2, [r7, #0]
    24bc:	18d3      	adds	r3, r2, r3
    24be:	f04f 025e 	mov.w	r2, #94	; 0x5e
    24c2:	701a      	strb	r2, [r3, #0]
    24c4:	7bfb      	ldrb	r3, [r7, #15]
    24c6:	687a      	ldr	r2, [r7, #4]
    24c8:	f103 0304 	add.w	r3, r3, #4
    24cc:	ea4f 0343 	mov.w	r3, r3, lsl #1
    24d0:	18d3      	adds	r3, r2, r3
    24d2:	789b      	ldrb	r3, [r3, #2]
    24d4:	b25b      	sxtb	r3, r3
    24d6:	2b00      	cmp	r3, #0
    24d8:	db36      	blt.n	2548 <sensor_unit_string+0xd4>
    24da:	7bfa      	ldrb	r2, [r7, #15]
    24dc:	4613      	mov	r3, r2
    24de:	ea4f 0383 	mov.w	r3, r3, lsl #2
    24e2:	189b      	adds	r3, r3, r2
    24e4:	f103 0302 	add.w	r3, r3, #2
    24e8:	683a      	ldr	r2, [r7, #0]
    24ea:	18d3      	adds	r3, r2, r3
    24ec:	f04f 022b 	mov.w	r2, #43	; 0x2b
    24f0:	701a      	strb	r2, [r3, #0]
    24f2:	7bfa      	ldrb	r2, [r7, #15]
    24f4:	4613      	mov	r3, r2
    24f6:	ea4f 0383 	mov.w	r3, r3, lsl #2
    24fa:	189b      	adds	r3, r3, r2
    24fc:	f103 0303 	add.w	r3, r3, #3
    2500:	683a      	ldr	r2, [r7, #0]
    2502:	18d0      	adds	r0, r2, r3
    2504:	7bfb      	ldrb	r3, [r7, #15]
    2506:	687a      	ldr	r2, [r7, #4]
    2508:	f103 0304 	add.w	r3, r3, #4
    250c:	ea4f 0343 	mov.w	r3, r3, lsl #1
    2510:	18d3      	adds	r3, r2, r3
    2512:	789b      	ldrb	r3, [r3, #2]
    2514:	b25a      	sxtb	r2, r3
    2516:	f246 6367 	movw	r3, #26215	; 0x6667
    251a:	f2c6 6366 	movt	r3, #26214	; 0x6666
    251e:	fb83 1302 	smull	r1, r3, r3, r2
    2522:	ea4f 01a3 	mov.w	r1, r3, asr #2
    2526:	ea4f 73e2 	mov.w	r3, r2, asr #31
    252a:	1ac9      	subs	r1, r1, r3
    252c:	460b      	mov	r3, r1
    252e:	ea4f 0383 	mov.w	r3, r3, lsl #2
    2532:	185b      	adds	r3, r3, r1
    2534:	ea4f 0343 	mov.w	r3, r3, lsl #1
    2538:	1ad3      	subs	r3, r2, r3
    253a:	b2db      	uxtb	r3, r3
    253c:	b2db      	uxtb	r3, r3
    253e:	f103 0330 	add.w	r3, r3, #48	; 0x30
    2542:	b2db      	uxtb	r3, r3
    2544:	7003      	strb	r3, [r0, #0]
    2546:	e036      	b.n	25b6 <sensor_unit_string+0x142>
    2548:	7bfa      	ldrb	r2, [r7, #15]
    254a:	4613      	mov	r3, r2
    254c:	ea4f 0383 	mov.w	r3, r3, lsl #2
    2550:	189b      	adds	r3, r3, r2
    2552:	f103 0302 	add.w	r3, r3, #2
    2556:	683a      	ldr	r2, [r7, #0]
    2558:	18d3      	adds	r3, r2, r3
    255a:	f04f 022d 	mov.w	r2, #45	; 0x2d
    255e:	701a      	strb	r2, [r3, #0]
    2560:	7bfa      	ldrb	r2, [r7, #15]
    2562:	4613      	mov	r3, r2
    2564:	ea4f 0383 	mov.w	r3, r3, lsl #2
    2568:	189b      	adds	r3, r3, r2
    256a:	f103 0303 	add.w	r3, r3, #3
    256e:	683a      	ldr	r2, [r7, #0]
    2570:	18d0      	adds	r0, r2, r3
    2572:	7bfb      	ldrb	r3, [r7, #15]
    2574:	687a      	ldr	r2, [r7, #4]
    2576:	f103 0304 	add.w	r3, r3, #4
    257a:	ea4f 0343 	mov.w	r3, r3, lsl #1
    257e:	18d3      	adds	r3, r2, r3
    2580:	789b      	ldrb	r3, [r3, #2]
    2582:	b25b      	sxtb	r3, r3
    2584:	f1c3 0100 	rsb	r1, r3, #0
    2588:	f246 6367 	movw	r3, #26215	; 0x6667
    258c:	f2c6 6366 	movt	r3, #26214	; 0x6666
    2590:	fb83 2301 	smull	r2, r3, r3, r1
    2594:	ea4f 02a3 	mov.w	r2, r3, asr #2
    2598:	ea4f 73e1 	mov.w	r3, r1, asr #31
    259c:	1ad2      	subs	r2, r2, r3
    259e:	4613      	mov	r3, r2
    25a0:	ea4f 0383 	mov.w	r3, r3, lsl #2
    25a4:	189b      	adds	r3, r3, r2
    25a6:	ea4f 0343 	mov.w	r3, r3, lsl #1
    25aa:	1aca      	subs	r2, r1, r3
    25ac:	b2d3      	uxtb	r3, r2
    25ae:	f103 0330 	add.w	r3, r3, #48	; 0x30
    25b2:	b2db      	uxtb	r3, r3
    25b4:	7003      	strb	r3, [r0, #0]
    25b6:	7bfa      	ldrb	r2, [r7, #15]
    25b8:	4613      	mov	r3, r2
    25ba:	ea4f 0383 	mov.w	r3, r3, lsl #2
    25be:	189b      	adds	r3, r3, r2
    25c0:	f103 0304 	add.w	r3, r3, #4
    25c4:	683a      	ldr	r2, [r7, #0]
    25c6:	18d3      	adds	r3, r2, r3
    25c8:	f04f 023b 	mov.w	r2, #59	; 0x3b
    25cc:	701a      	strb	r2, [r3, #0]
    25ce:	7bfb      	ldrb	r3, [r7, #15]
    25d0:	f103 0301 	add.w	r3, r3, #1
    25d4:	73fb      	strb	r3, [r7, #15]
    25d6:	7bfb      	ldrb	r3, [r7, #15]
    25d8:	2b03      	cmp	r3, #3
    25da:	f67f af54 	bls.w	2486 <sensor_unit_string+0x12>
    25de:	f107 0714 	add.w	r7, r7, #20
    25e2:	46bd      	mov	sp, r7
    25e4:	bc80      	pop	{r7}
    25e6:	4770      	bx	lr

000025e8 <swap_int16>:
    25e8:	b480      	push	{r7}
    25ea:	b083      	sub	sp, #12
    25ec:	af00      	add	r7, sp, #0
    25ee:	4603      	mov	r3, r0
    25f0:	80fb      	strh	r3, [r7, #6]
    25f2:	88fb      	ldrh	r3, [r7, #6]
    25f4:	ea4f 2303 	mov.w	r3, r3, lsl #8
    25f8:	b29a      	uxth	r2, r3
    25fa:	f9b7 3006 	ldrsh.w	r3, [r7, #6]
    25fe:	f403 437f 	and.w	r3, r3, #65280	; 0xff00
    2602:	ea4f 2323 	mov.w	r3, r3, asr #8
    2606:	b29b      	uxth	r3, r3
    2608:	4313      	orrs	r3, r2
    260a:	b29b      	uxth	r3, r3
    260c:	b21b      	sxth	r3, r3
    260e:	4618      	mov	r0, r3
    2610:	f107 070c 	add.w	r7, r7, #12
    2614:	46bd      	mov	sp, r7
    2616:	bc80      	pop	{r7}
    2618:	4770      	bx	lr
    261a:	bf00      	nop

0000261c <sensor_encode>:
    261c:	b580      	push	{r7, lr}
    261e:	b084      	sub	sp, #16
    2620:	af00      	add	r7, sp, #0
    2622:	6078      	str	r0, [r7, #4]
    2624:	6039      	str	r1, [r7, #0]
    2626:	f04f 0305 	mov.w	r3, #5
    262a:	73fb      	strb	r3, [r7, #15]
    262c:	e024      	b.n	2678 <sensor_encode+0x5c>
    262e:	7bf8      	ldrb	r0, [r7, #15]
    2630:	6839      	ldr	r1, [r7, #0]
    2632:	f24c 03c1 	movw	r3, #49345	; 0xc0c1
    2636:	f2cc 03c0 	movt	r3, #49344	; 0xc0c0
    263a:	fba3 2301 	umull	r2, r3, r3, r1
    263e:	ea4f 1293 	mov.w	r2, r3, lsr #6
    2642:	4613      	mov	r3, r2
    2644:	ea4f 0383 	mov.w	r3, r3, lsl #2
    2648:	189b      	adds	r3, r3, r2
    264a:	ea4f 1203 	mov.w	r2, r3, lsl #4
    264e:	189b      	adds	r3, r3, r2
    2650:	1aca      	subs	r2, r1, r3
    2652:	b2d3      	uxtb	r3, r2
    2654:	f103 0321 	add.w	r3, r3, #33	; 0x21
    2658:	b2da      	uxtb	r2, r3
    265a:	f107 0110 	add.w	r1, r7, #16
    265e:	180b      	adds	r3, r1, r0
    2660:	f803 2c08 	strb.w	r2, [r3, #-8]
    2664:	683a      	ldr	r2, [r7, #0]
    2666:	f24c 03c1 	movw	r3, #49345	; 0xc0c1
    266a:	f2cc 03c0 	movt	r3, #49344	; 0xc0c0
    266e:	fba3 1302 	umull	r1, r3, r3, r2
    2672:	ea4f 1393 	mov.w	r3, r3, lsr #6
    2676:	603b      	str	r3, [r7, #0]
    2678:	7bfb      	ldrb	r3, [r7, #15]
    267a:	2b00      	cmp	r3, #0
    267c:	bf0c      	ite	eq
    267e:	2300      	moveq	r3, #0
    2680:	2301      	movne	r3, #1
    2682:	b2db      	uxtb	r3, r3
    2684:	7bfa      	ldrb	r2, [r7, #15]
    2686:	f102 32ff 	add.w	r2, r2, #4294967295
    268a:	73fa      	strb	r2, [r7, #15]
    268c:	2b00      	cmp	r3, #0
    268e:	d1ce      	bne.n	262e <sensor_encode+0x12>
    2690:	687b      	ldr	r3, [r7, #4]
    2692:	4619      	mov	r1, r3
    2694:	f107 0208 	add.w	r2, r7, #8
    2698:	f04f 0305 	mov.w	r3, #5
    269c:	4608      	mov	r0, r1
    269e:	4611      	mov	r1, r2
    26a0:	461a      	mov	r2, r3
    26a2:	f001 ffb3 	bl	460c <memcpy>
    26a6:	6878      	ldr	r0, [r7, #4]
    26a8:	f107 0710 	add.w	r7, r7, #16
    26ac:	46bd      	mov	sp, r7
    26ae:	bd80      	pop	{r7, pc}

000026b0 <NVIC_EnableIRQ>:
    26b0:	b480      	push	{r7}
    26b2:	b083      	sub	sp, #12
    26b4:	af00      	add	r7, sp, #0
    26b6:	4603      	mov	r3, r0
    26b8:	71fb      	strb	r3, [r7, #7]
    26ba:	f44f 4361 	mov.w	r3, #57600	; 0xe100
    26be:	f2ce 0300 	movt	r3, #57344	; 0xe000
    26c2:	f997 2007 	ldrsb.w	r2, [r7, #7]
    26c6:	ea4f 1252 	mov.w	r2, r2, lsr #5
    26ca:	79f9      	ldrb	r1, [r7, #7]
    26cc:	f001 011f 	and.w	r1, r1, #31
    26d0:	f04f 0001 	mov.w	r0, #1
    26d4:	fa00 f101 	lsl.w	r1, r0, r1
    26d8:	f843 1022 	str.w	r1, [r3, r2, lsl #2]
    26dc:	f107 070c 	add.w	r7, r7, #12
    26e0:	46bd      	mov	sp, r7
    26e2:	bc80      	pop	{r7}
    26e4:	4770      	bx	lr
    26e6:	bf00      	nop

000026e8 <NVIC_SetPriority>:
    26e8:	b480      	push	{r7}
    26ea:	b083      	sub	sp, #12
    26ec:	af00      	add	r7, sp, #0
    26ee:	4603      	mov	r3, r0
    26f0:	6039      	str	r1, [r7, #0]
    26f2:	71fb      	strb	r3, [r7, #7]
    26f4:	f997 3007 	ldrsb.w	r3, [r7, #7]
    26f8:	2b00      	cmp	r3, #0
    26fa:	da10      	bge.n	271e <NVIC_SetPriority+0x36>
    26fc:	f44f 436d 	mov.w	r3, #60672	; 0xed00
    2700:	f2ce 0300 	movt	r3, #57344	; 0xe000
    2704:	79fa      	ldrb	r2, [r7, #7]
    2706:	f002 020f 	and.w	r2, r2, #15
    270a:	f1a2 0104 	sub.w	r1, r2, #4
    270e:	683a      	ldr	r2, [r7, #0]
    2710:	b2d2      	uxtb	r2, r2
    2712:	ea4f 02c2 	mov.w	r2, r2, lsl #3
    2716:	b2d2      	uxtb	r2, r2
    2718:	185b      	adds	r3, r3, r1
    271a:	761a      	strb	r2, [r3, #24]
    271c:	e00d      	b.n	273a <NVIC_SetPriority+0x52>
    271e:	f44f 4361 	mov.w	r3, #57600	; 0xe100
    2722:	f2ce 0300 	movt	r3, #57344	; 0xe000
    2726:	f997 1007 	ldrsb.w	r1, [r7, #7]
    272a:	683a      	ldr	r2, [r7, #0]
    272c:	b2d2      	uxtb	r2, r2
    272e:	ea4f 02c2 	mov.w	r2, r2, lsl #3
    2732:	b2d2      	uxtb	r2, r2
    2734:	185b      	adds	r3, r3, r1
    2736:	f883 2300 	strb.w	r2, [r3, #768]	; 0x300
    273a:	f107 070c 	add.w	r7, r7, #12
    273e:	46bd      	mov	sp, r7
    2740:	bc80      	pop	{r7}
    2742:	4770      	bx	lr

00002744 <btm222_init>:
    2744:	b580      	push	{r7, lr}
    2746:	b088      	sub	sp, #32
    2748:	af00      	add	r7, sp, #0
    274a:	6078      	str	r0, [r7, #4]
    274c:	f04f 0300 	mov.w	r3, #0
    2750:	743b      	strb	r3, [r7, #16]
    2752:	f04f 0300 	mov.w	r3, #0
    2756:	73fb      	strb	r3, [r7, #15]
    2758:	f04f 0301 	mov.w	r3, #1
    275c:	73bb      	strb	r3, [r7, #14]
    275e:	f04f 0300 	mov.w	r3, #0
    2762:	733b      	strb	r3, [r7, #12]
    2764:	f04f 0302 	mov.w	r3, #2
    2768:	737b      	strb	r3, [r7, #13]
    276a:	f107 030c 	add.w	r3, r7, #12
    276e:	4618      	mov	r0, r3
    2770:	f001 f8ea 	bl	3948 <PINSEL_ConfigPin>
    2774:	f04f 0301 	mov.w	r3, #1
    2778:	73bb      	strb	r3, [r7, #14]
    277a:	f04f 0300 	mov.w	r3, #0
    277e:	733b      	strb	r3, [r7, #12]
    2780:	f04f 0303 	mov.w	r3, #3
    2784:	737b      	strb	r3, [r7, #13]
    2786:	f107 030c 	add.w	r3, r7, #12
    278a:	4618      	mov	r0, r3
    278c:	f001 f8dc 	bl	3948 <PINSEL_ConfigPin>
    2790:	687b      	ldr	r3, [r7, #4]
    2792:	61bb      	str	r3, [r7, #24]
    2794:	f04f 0303 	mov.w	r3, #3
    2798:	777b      	strb	r3, [r7, #29]
    279a:	f04f 0300 	mov.w	r3, #0
    279e:	773b      	strb	r3, [r7, #28]
    27a0:	f04f 0300 	mov.w	r3, #0
    27a4:	77bb      	strb	r3, [r7, #30]
    27a6:	f107 0318 	add.w	r3, r7, #24
    27aa:	f44f 4040 	mov.w	r0, #49152	; 0xc000
    27ae:	f2c4 0000 	movt	r0, #16384	; 0x4000
    27b2:	4619      	mov	r1, r3
    27b4:	f001 fbe0 	bl	3f78 <UART_Init>
    27b8:	f04f 0300 	mov.w	r3, #0
    27bc:	75bb      	strb	r3, [r7, #22]
    27be:	f04f 0300 	mov.w	r3, #0
    27c2:	75fb      	strb	r3, [r7, #23]
    27c4:	f04f 0301 	mov.w	r3, #1
    27c8:	753b      	strb	r3, [r7, #20]
    27ca:	f04f 0301 	mov.w	r3, #1
    27ce:	757b      	strb	r3, [r7, #21]
    27d0:	f107 0314 	add.w	r3, r7, #20
    27d4:	f44f 4040 	mov.w	r0, #49152	; 0xc000
    27d8:	f2c4 0000 	movt	r0, #16384	; 0x4000
    27dc:	4619      	mov	r1, r3
    27de:	f001 fe09 	bl	43f4 <UART_FIFOConfig>
    27e2:	f44f 4040 	mov.w	r0, #49152	; 0xc000
    27e6:	f2c4 0000 	movt	r0, #16384	; 0x4000
    27ea:	f04f 0101 	mov.w	r1, #1
    27ee:	f001 fe57 	bl	44a0 <UART_TxCmd>
    27f2:	f44f 4040 	mov.w	r0, #49152	; 0xc000
    27f6:	f2c4 0000 	movt	r0, #16384	; 0x4000
    27fa:	f04f 0102 	mov.w	r1, #2
    27fe:	f04f 0201 	mov.w	r2, #1
    2802:	f001 fd7f 	bl	4304 <UART_IntConfig>
    2806:	f44f 4040 	mov.w	r0, #49152	; 0xc000
    280a:	f2c4 0000 	movt	r0, #16384	; 0x4000
    280e:	f04f 0100 	mov.w	r1, #0
    2812:	f04f 0201 	mov.w	r2, #1
    2816:	f001 fd75 	bl	4304 <UART_IntConfig>
    281a:	f44f 4040 	mov.w	r0, #49152	; 0xc000
    281e:	f2c4 0000 	movt	r0, #16384	; 0x4000
    2822:	f04f 0101 	mov.w	r1, #1
    2826:	f04f 0201 	mov.w	r2, #1
    282a:	f001 fd6b 	bl	4304 <UART_IntConfig>
    282e:	f04f 0005 	mov.w	r0, #5
    2832:	f04f 0109 	mov.w	r1, #9
    2836:	f7ff ff57 	bl	26e8 <NVIC_SetPriority>
    283a:	f04f 0005 	mov.w	r0, #5
    283e:	f7ff ff37 	bl	26b0 <NVIC_EnableIRQ>
    2842:	f107 0720 	add.w	r7, r7, #32
    2846:	46bd      	mov	sp, r7
    2848:	bd80      	pop	{r7, pc}
    284a:	bf00      	nop

0000284c <btm222_send>:
    284c:	b580      	push	{r7, lr}
    284e:	b082      	sub	sp, #8
    2850:	af00      	add	r7, sp, #0
    2852:	6078      	str	r0, [r7, #4]
    2854:	6039      	str	r1, [r7, #0]
    2856:	f44f 4040 	mov.w	r0, #49152	; 0xc000
    285a:	f2c4 0000 	movt	r0, #16384	; 0x4000
    285e:	6879      	ldr	r1, [r7, #4]
    2860:	683a      	ldr	r2, [r7, #0]
    2862:	f04f 0301 	mov.w	r3, #1
    2866:	f001 fcc7 	bl	41f8 <UART_Send>
    286a:	f107 0708 	add.w	r7, r7, #8
    286e:	46bd      	mov	sp, r7
    2870:	bd80      	pop	{r7, pc}
    2872:	bf00      	nop

00002874 <btm222_putc>:
    2874:	b580      	push	{r7, lr}
    2876:	b082      	sub	sp, #8
    2878:	af00      	add	r7, sp, #0
    287a:	4603      	mov	r3, r0
    287c:	71fb      	strb	r3, [r7, #7]
    287e:	f107 0307 	add.w	r3, r7, #7
    2882:	f44f 4040 	mov.w	r0, #49152	; 0xc000
    2886:	f2c4 0000 	movt	r0, #16384	; 0x4000
    288a:	4619      	mov	r1, r3
    288c:	f04f 0201 	mov.w	r2, #1
    2890:	f04f 0301 	mov.w	r3, #1
    2894:	f001 fcb0 	bl	41f8 <UART_Send>
    2898:	f107 0708 	add.w	r7, r7, #8
    289c:	46bd      	mov	sp, r7
    289e:	bd80      	pop	{r7, pc}

000028a0 <btm222_puts>:
    28a0:	b580      	push	{r7, lr}
    28a2:	b084      	sub	sp, #16
    28a4:	af00      	add	r7, sp, #0
    28a6:	6078      	str	r0, [r7, #4]
    28a8:	687b      	ldr	r3, [r7, #4]
    28aa:	60fb      	str	r3, [r7, #12]
    28ac:	e008      	b.n	28c0 <btm222_puts+0x20>
    28ae:	68fb      	ldr	r3, [r7, #12]
    28b0:	781b      	ldrb	r3, [r3, #0]
    28b2:	68fa      	ldr	r2, [r7, #12]
    28b4:	f102 0201 	add.w	r2, r2, #1
    28b8:	60fa      	str	r2, [r7, #12]
    28ba:	4618      	mov	r0, r3
    28bc:	f7ff ffda 	bl	2874 <btm222_putc>
    28c0:	68fb      	ldr	r3, [r7, #12]
    28c2:	781b      	ldrb	r3, [r3, #0]
    28c4:	2b00      	cmp	r3, #0
    28c6:	d1f2      	bne.n	28ae <btm222_puts+0xe>
    28c8:	f107 0710 	add.w	r7, r7, #16
    28cc:	46bd      	mov	sp, r7
    28ce:	bd80      	pop	{r7, pc}

000028d0 <UART0_IRQHandler>:
    28d0:	b580      	push	{r7, lr}
    28d2:	b084      	sub	sp, #16
    28d4:	af00      	add	r7, sp, #0
    28d6:	79fb      	ldrb	r3, [r7, #7]
    28d8:	71fb      	strb	r3, [r7, #7]
    28da:	f44f 4340 	mov.w	r3, #49152	; 0xc000
    28de:	f2c4 0300 	movt	r3, #16384	; 0x4000
    28e2:	689b      	ldr	r3, [r3, #8]
    28e4:	60fb      	str	r3, [r7, #12]
    28e6:	68fb      	ldr	r3, [r7, #12]
    28e8:	ea4f 0353 	mov.w	r3, r3, lsr #1
    28ec:	60fb      	str	r3, [r7, #12]
    28ee:	68fb      	ldr	r3, [r7, #12]
    28f0:	f003 0307 	and.w	r3, r3, #7
    28f4:	60fb      	str	r3, [r7, #12]
    28f6:	68fb      	ldr	r3, [r7, #12]
    28f8:	2b03      	cmp	r3, #3
    28fa:	d162      	bne.n	29c2 <UART0_IRQHandler+0xf2>
    28fc:	f44f 4340 	mov.w	r3, #49152	; 0xc000
    2900:	f2c4 0300 	movt	r3, #16384	; 0x4000
    2904:	7d1b      	ldrb	r3, [r3, #20]
    2906:	b2db      	uxtb	r3, r3
    2908:	60bb      	str	r3, [r7, #8]
    290a:	68bb      	ldr	r3, [r7, #8]
    290c:	f003 039e 	and.w	r3, r3, #158	; 0x9e
    2910:	2b00      	cmp	r3, #0
    2912:	d00d      	beq.n	2930 <UART0_IRQHandler+0x60>
    2914:	f240 23c4 	movw	r3, #708	; 0x2c4
    2918:	f2c1 0300 	movt	r3, #4096	; 0x1000
    291c:	68ba      	ldr	r2, [r7, #8]
    291e:	601a      	str	r2, [r3, #0]
    2920:	f44f 4340 	mov.w	r3, #49152	; 0xc000
    2924:	f2c4 0300 	movt	r3, #16384	; 0x4000
    2928:	781b      	ldrb	r3, [r3, #0]
    292a:	b2db      	uxtb	r3, r3
    292c:	71fb      	strb	r3, [r7, #7]
    292e:	e0bb      	b.n	2aa8 <UART0_IRQHandler+0x1d8>
    2930:	68bb      	ldr	r3, [r7, #8]
    2932:	f003 0301 	and.w	r3, r3, #1
    2936:	b2db      	uxtb	r3, r3
    2938:	2b00      	cmp	r3, #0
    293a:	f000 80b5 	beq.w	2aa8 <UART0_IRQHandler+0x1d8>
    293e:	f44f 4340 	mov.w	r3, #49152	; 0xc000
    2942:	f2c4 0300 	movt	r3, #16384	; 0x4000
    2946:	781b      	ldrb	r3, [r3, #0]
    2948:	b2db      	uxtb	r3, r3
    294a:	71fb      	strb	r3, [r7, #7]
    294c:	f240 2384 	movw	r3, #644	; 0x284
    2950:	f2c1 0300 	movt	r3, #4096	; 0x1000
    2954:	781b      	ldrb	r3, [r3, #0]
    2956:	2b00      	cmp	r3, #0
    2958:	d00d      	beq.n	2976 <UART0_IRQHandler+0xa6>
    295a:	f107 0307 	add.w	r3, r7, #7
    295e:	f44f 4040 	mov.w	r0, #49152	; 0xc000
    2962:	f2c4 0000 	movt	r0, #16384	; 0x4000
    2966:	4619      	mov	r1, r3
    2968:	f04f 0201 	mov.w	r2, #1
    296c:	f04f 0301 	mov.w	r3, #1
    2970:	f001 fc42 	bl	41f8 <UART_Send>
    2974:	e098      	b.n	2aa8 <UART0_IRQHandler+0x1d8>
    2976:	f240 2380 	movw	r3, #640	; 0x280
    297a:	f2c1 0300 	movt	r3, #4096	; 0x1000
    297e:	681a      	ldr	r2, [r3, #0]
    2980:	79f9      	ldrb	r1, [r7, #7]
    2982:	f240 23c8 	movw	r3, #712	; 0x2c8
    2986:	f2c1 0300 	movt	r3, #4096	; 0x1000
    298a:	5499      	strb	r1, [r3, r2]
    298c:	f240 2380 	movw	r3, #640	; 0x280
    2990:	f2c1 0300 	movt	r3, #4096	; 0x1000
    2994:	681b      	ldr	r3, [r3, #0]
    2996:	f103 0201 	add.w	r2, r3, #1
    299a:	f240 2380 	movw	r3, #640	; 0x280
    299e:	f2c1 0300 	movt	r3, #4096	; 0x1000
    29a2:	601a      	str	r2, [r3, #0]
    29a4:	f240 2380 	movw	r3, #640	; 0x280
    29a8:	f2c1 0300 	movt	r3, #4096	; 0x1000
    29ac:	681b      	ldr	r3, [r3, #0]
    29ae:	2b80      	cmp	r3, #128	; 0x80
    29b0:	d17a      	bne.n	2aa8 <UART0_IRQHandler+0x1d8>
    29b2:	f240 2380 	movw	r3, #640	; 0x280
    29b6:	f2c1 0300 	movt	r3, #4096	; 0x1000
    29ba:	f04f 0200 	mov.w	r2, #0
    29be:	601a      	str	r2, [r3, #0]
    29c0:	e072      	b.n	2aa8 <UART0_IRQHandler+0x1d8>
    29c2:	68fb      	ldr	r3, [r7, #12]
    29c4:	2b02      	cmp	r3, #2
    29c6:	d141      	bne.n	2a4c <UART0_IRQHandler+0x17c>
    29c8:	f44f 4340 	mov.w	r3, #49152	; 0xc000
    29cc:	f2c4 0300 	movt	r3, #16384	; 0x4000
    29d0:	781b      	ldrb	r3, [r3, #0]
    29d2:	b2db      	uxtb	r3, r3
    29d4:	71fb      	strb	r3, [r7, #7]
    29d6:	f240 2384 	movw	r3, #644	; 0x284
    29da:	f2c1 0300 	movt	r3, #4096	; 0x1000
    29de:	781b      	ldrb	r3, [r3, #0]
    29e0:	2b00      	cmp	r3, #0
    29e2:	d00d      	beq.n	2a00 <UART0_IRQHandler+0x130>
    29e4:	f107 0307 	add.w	r3, r7, #7
    29e8:	f44f 4040 	mov.w	r0, #49152	; 0xc000
    29ec:	f2c4 0000 	movt	r0, #16384	; 0x4000
    29f0:	4619      	mov	r1, r3
    29f2:	f04f 0201 	mov.w	r2, #1
    29f6:	f04f 0301 	mov.w	r3, #1
    29fa:	f001 fbfd 	bl	41f8 <UART_Send>
    29fe:	e053      	b.n	2aa8 <UART0_IRQHandler+0x1d8>
    2a00:	f240 2380 	movw	r3, #640	; 0x280
    2a04:	f2c1 0300 	movt	r3, #4096	; 0x1000
    2a08:	681a      	ldr	r2, [r3, #0]
    2a0a:	79f9      	ldrb	r1, [r7, #7]
    2a0c:	f240 23c8 	movw	r3, #712	; 0x2c8
    2a10:	f2c1 0300 	movt	r3, #4096	; 0x1000
    2a14:	5499      	strb	r1, [r3, r2]
    2a16:	f240 2380 	movw	r3, #640	; 0x280
    2a1a:	f2c1 0300 	movt	r3, #4096	; 0x1000
    2a1e:	681b      	ldr	r3, [r3, #0]
    2a20:	f103 0201 	add.w	r2, r3, #1
    2a24:	f240 2380 	movw	r3, #640	; 0x280
    2a28:	f2c1 0300 	movt	r3, #4096	; 0x1000
    2a2c:	601a      	str	r2, [r3, #0]
    2a2e:	f240 2380 	movw	r3, #640	; 0x280
    2a32:	f2c1 0300 	movt	r3, #4096	; 0x1000
    2a36:	681b      	ldr	r3, [r3, #0]
    2a38:	2b80      	cmp	r3, #128	; 0x80
    2a3a:	d135      	bne.n	2aa8 <UART0_IRQHandler+0x1d8>
    2a3c:	f240 2380 	movw	r3, #640	; 0x280
    2a40:	f2c1 0300 	movt	r3, #4096	; 0x1000
    2a44:	f04f 0200 	mov.w	r2, #0
    2a48:	601a      	str	r2, [r3, #0]
    2a4a:	e02d      	b.n	2aa8 <UART0_IRQHandler+0x1d8>
    2a4c:	68fb      	ldr	r3, [r7, #12]
    2a4e:	2b06      	cmp	r3, #6
    2a50:	d10c      	bne.n	2a6c <UART0_IRQHandler+0x19c>
    2a52:	f240 23c4 	movw	r3, #708	; 0x2c4
    2a56:	f2c1 0300 	movt	r3, #4096	; 0x1000
    2a5a:	681b      	ldr	r3, [r3, #0]
    2a5c:	f443 7280 	orr.w	r2, r3, #256	; 0x100
    2a60:	f240 23c4 	movw	r3, #708	; 0x2c4
    2a64:	f2c1 0300 	movt	r3, #4096	; 0x1000
    2a68:	601a      	str	r2, [r3, #0]
    2a6a:	e01d      	b.n	2aa8 <UART0_IRQHandler+0x1d8>
    2a6c:	68fb      	ldr	r3, [r7, #12]
    2a6e:	2b01      	cmp	r3, #1
    2a70:	d11a      	bne.n	2aa8 <UART0_IRQHandler+0x1d8>
    2a72:	f44f 4340 	mov.w	r3, #49152	; 0xc000
    2a76:	f2c4 0300 	movt	r3, #16384	; 0x4000
    2a7a:	7d1b      	ldrb	r3, [r3, #20]
    2a7c:	b2db      	uxtb	r3, r3
    2a7e:	60bb      	str	r3, [r7, #8]
    2a80:	68bb      	ldr	r3, [r7, #8]
    2a82:	f003 0320 	and.w	r3, r3, #32
    2a86:	2b00      	cmp	r3, #0
    2a88:	d007      	beq.n	2a9a <UART0_IRQHandler+0x1ca>
    2a8a:	f240 0301 	movw	r3, #1
    2a8e:	f2c1 0300 	movt	r3, #4096	; 0x1000
    2a92:	f04f 0201 	mov.w	r2, #1
    2a96:	701a      	strb	r2, [r3, #0]
    2a98:	e006      	b.n	2aa8 <UART0_IRQHandler+0x1d8>
    2a9a:	f240 0301 	movw	r3, #1
    2a9e:	f2c1 0300 	movt	r3, #4096	; 0x1000
    2aa2:	f04f 0200 	mov.w	r2, #0
    2aa6:	701a      	strb	r2, [r3, #0]
    2aa8:	f107 0710 	add.w	r7, r7, #16
    2aac:	46bd      	mov	sp, r7
    2aae:	bd80      	pop	{r7, pc}

00002ab0 <delay_init>:
    2ab0:	b580      	push	{r7, lr}
    2ab2:	b084      	sub	sp, #16
    2ab4:	af00      	add	r7, sp, #0
    2ab6:	f04f 0002 	mov.w	r0, #2
    2aba:	f000 f9ad 	bl	2e18 <CLKPWR_GetPCLK>
    2abe:	4603      	mov	r3, r0
    2ac0:	60fb      	str	r3, [r7, #12]
    2ac2:	f04f 0300 	mov.w	r3, #0
    2ac6:	713b      	strb	r3, [r7, #4]
    2ac8:	68fa      	ldr	r2, [r7, #12]
    2aca:	f64d 6383 	movw	r3, #56963	; 0xde83
    2ace:	f2c4 331b 	movt	r3, #17179	; 0x431b
    2ad2:	fba3 1302 	umull	r1, r3, r3, r2
    2ad6:	ea4f 4393 	mov.w	r3, r3, lsr #18
    2ada:	60bb      	str	r3, [r7, #8]
    2adc:	f107 0304 	add.w	r3, r7, #4
    2ae0:	f04f 2040 	mov.w	r0, #1073758208	; 0x40004000
    2ae4:	f04f 0100 	mov.w	r1, #0
    2ae8:	461a      	mov	r2, r3
    2aea:	f000 fff3 	bl	3ad4 <TIM_Init>
    2aee:	f04f 2040 	mov.w	r0, #1073758208	; 0x40004000
    2af2:	f04f 0101 	mov.w	r1, #1
    2af6:	f001 f89d 	bl	3c34 <TIM_Cmd>
    2afa:	f107 0710 	add.w	r7, r7, #16
    2afe:	46bd      	mov	sp, r7
    2b00:	bd80      	pop	{r7, pc}
    2b02:	bf00      	nop

00002b04 <delay_ms>:
    2b04:	b480      	push	{r7}
    2b06:	b085      	sub	sp, #20
    2b08:	af00      	add	r7, sp, #0
    2b0a:	6078      	str	r0, [r7, #4]
    2b0c:	f04f 2340 	mov.w	r3, #1073758208	; 0x40004000
    2b10:	689b      	ldr	r3, [r3, #8]
    2b12:	60fb      	str	r3, [r7, #12]
    2b14:	bf00      	nop
    2b16:	f04f 2340 	mov.w	r3, #1073758208	; 0x40004000
    2b1a:	689b      	ldr	r3, [r3, #8]
    2b1c:	461a      	mov	r2, r3
    2b1e:	68fb      	ldr	r3, [r7, #12]
    2b20:	1ad2      	subs	r2, r2, r3
    2b22:	687b      	ldr	r3, [r7, #4]
    2b24:	f44f 717a 	mov.w	r1, #1000	; 0x3e8
    2b28:	fb01 f303 	mul.w	r3, r1, r3
    2b2c:	429a      	cmp	r2, r3
    2b2e:	d3f2      	bcc.n	2b16 <delay_ms+0x12>
    2b30:	f107 0714 	add.w	r7, r7, #20
    2b34:	46bd      	mov	sp, r7
    2b36:	bc80      	pop	{r7}
    2b38:	4770      	bx	lr
    2b3a:	bf00      	nop

00002b3c <ADC_Init>:
    2b3c:	b580      	push	{r7, lr}
    2b3e:	b086      	sub	sp, #24
    2b40:	af00      	add	r7, sp, #0
    2b42:	6078      	str	r0, [r7, #4]
    2b44:	6039      	str	r1, [r7, #0]
    2b46:	f44f 5080 	mov.w	r0, #4096	; 0x1000
    2b4a:	f04f 0101 	mov.w	r1, #1
    2b4e:	f000 f99d 	bl	2e8c <CLKPWR_ConfigPPWR>
    2b52:	687b      	ldr	r3, [r7, #4]
    2b54:	f04f 0200 	mov.w	r2, #0
    2b58:	601a      	str	r2, [r3, #0]
    2b5a:	f44f 1300 	mov.w	r3, #2097152	; 0x200000
    2b5e:	617b      	str	r3, [r7, #20]
    2b60:	f04f 0018 	mov.w	r0, #24
    2b64:	f000 f958 	bl	2e18 <CLKPWR_GetPCLK>
    2b68:	4603      	mov	r3, r0
    2b6a:	613b      	str	r3, [r7, #16]
    2b6c:	683a      	ldr	r2, [r7, #0]
    2b6e:	4613      	mov	r3, r2
    2b70:	ea4f 1383 	mov.w	r3, r3, lsl #6
    2b74:	189b      	adds	r3, r3, r2
    2b76:	60fb      	str	r3, [r7, #12]
    2b78:	693b      	ldr	r3, [r7, #16]
    2b7a:	ea4f 0243 	mov.w	r2, r3, lsl #1
    2b7e:	68fb      	ldr	r3, [r7, #12]
    2b80:	18d2      	adds	r2, r2, r3
    2b82:	68fb      	ldr	r3, [r7, #12]
    2b84:	ea4f 0343 	mov.w	r3, r3, lsl #1
    2b88:	fbb2 f3f3 	udiv	r3, r2, r3
    2b8c:	f103 33ff 	add.w	r3, r3, #4294967295
    2b90:	60fb      	str	r3, [r7, #12]
    2b92:	68fb      	ldr	r3, [r7, #12]
    2b94:	ea4f 2303 	mov.w	r3, r3, lsl #8
    2b98:	697a      	ldr	r2, [r7, #20]
    2b9a:	4313      	orrs	r3, r2
    2b9c:	617b      	str	r3, [r7, #20]
    2b9e:	687b      	ldr	r3, [r7, #4]
    2ba0:	697a      	ldr	r2, [r7, #20]
    2ba2:	601a      	str	r2, [r3, #0]
    2ba4:	f107 0718 	add.w	r7, r7, #24
    2ba8:	46bd      	mov	sp, r7
    2baa:	bd80      	pop	{r7, pc}

00002bac <ADC_StartCmd>:
    2bac:	b480      	push	{r7}
    2bae:	b083      	sub	sp, #12
    2bb0:	af00      	add	r7, sp, #0
    2bb2:	6078      	str	r0, [r7, #4]
    2bb4:	460b      	mov	r3, r1
    2bb6:	70fb      	strb	r3, [r7, #3]
    2bb8:	687b      	ldr	r3, [r7, #4]
    2bba:	681b      	ldr	r3, [r3, #0]
    2bbc:	f023 62e0 	bic.w	r2, r3, #117440512	; 0x7000000
    2bc0:	687b      	ldr	r3, [r7, #4]
    2bc2:	601a      	str	r2, [r3, #0]
    2bc4:	687b      	ldr	r3, [r7, #4]
    2bc6:	681b      	ldr	r3, [r3, #0]
    2bc8:	461a      	mov	r2, r3
    2bca:	78fb      	ldrb	r3, [r7, #3]
    2bcc:	ea4f 6303 	mov.w	r3, r3, lsl #24
    2bd0:	431a      	orrs	r2, r3
    2bd2:	687b      	ldr	r3, [r7, #4]
    2bd4:	601a      	str	r2, [r3, #0]
    2bd6:	f107 070c 	add.w	r7, r7, #12
    2bda:	46bd      	mov	sp, r7
    2bdc:	bc80      	pop	{r7}
    2bde:	4770      	bx	lr

00002be0 <ADC_PowerdownCmd>:
    2be0:	b480      	push	{r7}
    2be2:	b083      	sub	sp, #12
    2be4:	af00      	add	r7, sp, #0
    2be6:	6078      	str	r0, [r7, #4]
    2be8:	460b      	mov	r3, r1
    2bea:	70fb      	strb	r3, [r7, #3]
    2bec:	687b      	ldr	r3, [r7, #4]
    2bee:	681b      	ldr	r3, [r3, #0]
    2bf0:	f423 1200 	bic.w	r2, r3, #2097152	; 0x200000
    2bf4:	687b      	ldr	r3, [r7, #4]
    2bf6:	601a      	str	r2, [r3, #0]
    2bf8:	78fb      	ldrb	r3, [r7, #3]
    2bfa:	2b00      	cmp	r3, #0
    2bfc:	d005      	beq.n	2c0a <ADC_PowerdownCmd+0x2a>
    2bfe:	687b      	ldr	r3, [r7, #4]
    2c00:	681b      	ldr	r3, [r3, #0]
    2c02:	f443 1200 	orr.w	r2, r3, #2097152	; 0x200000
    2c06:	687b      	ldr	r3, [r7, #4]
    2c08:	601a      	str	r2, [r3, #0]
    2c0a:	f107 070c 	add.w	r7, r7, #12
    2c0e:	46bd      	mov	sp, r7
    2c10:	bc80      	pop	{r7}
    2c12:	4770      	bx	lr

00002c14 <ADC_ChannelCmd>:
    2c14:	b480      	push	{r7}
    2c16:	b083      	sub	sp, #12
    2c18:	af00      	add	r7, sp, #0
    2c1a:	6078      	str	r0, [r7, #4]
    2c1c:	4613      	mov	r3, r2
    2c1e:	460a      	mov	r2, r1
    2c20:	70fa      	strb	r2, [r7, #3]
    2c22:	70bb      	strb	r3, [r7, #2]
    2c24:	78bb      	ldrb	r3, [r7, #2]
    2c26:	2b01      	cmp	r3, #1
    2c28:	d10b      	bne.n	2c42 <ADC_ChannelCmd+0x2e>
    2c2a:	687b      	ldr	r3, [r7, #4]
    2c2c:	681b      	ldr	r3, [r3, #0]
    2c2e:	461a      	mov	r2, r3
    2c30:	78fb      	ldrb	r3, [r7, #3]
    2c32:	f04f 0101 	mov.w	r1, #1
    2c36:	fa01 f303 	lsl.w	r3, r1, r3
    2c3a:	431a      	orrs	r2, r3
    2c3c:	687b      	ldr	r3, [r7, #4]
    2c3e:	601a      	str	r2, [r3, #0]
    2c40:	e00c      	b.n	2c5c <ADC_ChannelCmd+0x48>
    2c42:	687b      	ldr	r3, [r7, #4]
    2c44:	681b      	ldr	r3, [r3, #0]
    2c46:	461a      	mov	r2, r3
    2c48:	78fb      	ldrb	r3, [r7, #3]
    2c4a:	f04f 0101 	mov.w	r1, #1
    2c4e:	fa01 f303 	lsl.w	r3, r1, r3
    2c52:	ea6f 0303 	mvn.w	r3, r3
    2c56:	401a      	ands	r2, r3
    2c58:	687b      	ldr	r3, [r7, #4]
    2c5a:	601a      	str	r2, [r3, #0]
    2c5c:	f107 070c 	add.w	r7, r7, #12
    2c60:	46bd      	mov	sp, r7
    2c62:	bc80      	pop	{r7}
    2c64:	4770      	bx	lr
    2c66:	bf00      	nop

00002c68 <ADC_ChannelGetData>:
    2c68:	b480      	push	{r7}
    2c6a:	b085      	sub	sp, #20
    2c6c:	af00      	add	r7, sp, #0
    2c6e:	6078      	str	r0, [r7, #4]
    2c70:	460b      	mov	r3, r1
    2c72:	70fb      	strb	r3, [r7, #3]
    2c74:	687b      	ldr	r3, [r7, #4]
    2c76:	f103 0210 	add.w	r2, r3, #16
    2c7a:	78fb      	ldrb	r3, [r7, #3]
    2c7c:	ea4f 0383 	mov.w	r3, r3, lsl #2
    2c80:	18d3      	adds	r3, r2, r3
    2c82:	681b      	ldr	r3, [r3, #0]
    2c84:	60fb      	str	r3, [r7, #12]
    2c86:	68fb      	ldr	r3, [r7, #12]
    2c88:	ea4f 1313 	mov.w	r3, r3, lsr #4
    2c8c:	b29b      	uxth	r3, r3
    2c8e:	ea4f 5303 	mov.w	r3, r3, lsl #20
    2c92:	ea4f 5313 	mov.w	r3, r3, lsr #20
    2c96:	b29b      	uxth	r3, r3
    2c98:	4618      	mov	r0, r3
    2c9a:	f107 0714 	add.w	r7, r7, #20
    2c9e:	46bd      	mov	sp, r7
    2ca0:	bc80      	pop	{r7}
    2ca2:	4770      	bx	lr

00002ca4 <ADC_ChannelGetStatus>:
    2ca4:	b480      	push	{r7}
    2ca6:	b087      	sub	sp, #28
    2ca8:	af00      	add	r7, sp, #0
    2caa:	60f8      	str	r0, [r7, #12]
    2cac:	460b      	mov	r3, r1
    2cae:	607a      	str	r2, [r7, #4]
    2cb0:	72fb      	strb	r3, [r7, #11]
    2cb2:	68fb      	ldr	r3, [r7, #12]
    2cb4:	f103 0210 	add.w	r2, r3, #16
    2cb8:	7afb      	ldrb	r3, [r7, #11]
    2cba:	ea4f 0383 	mov.w	r3, r3, lsl #2
    2cbe:	18d3      	adds	r3, r2, r3
    2cc0:	681b      	ldr	r3, [r3, #0]
    2cc2:	617b      	str	r3, [r7, #20]
    2cc4:	687b      	ldr	r3, [r7, #4]
    2cc6:	2b00      	cmp	r3, #0
    2cc8:	d004      	beq.n	2cd4 <ADC_ChannelGetStatus+0x30>
    2cca:	697b      	ldr	r3, [r7, #20]
    2ccc:	f003 4300 	and.w	r3, r3, #2147483648	; 0x80000000
    2cd0:	617b      	str	r3, [r7, #20]
    2cd2:	e003      	b.n	2cdc <ADC_ChannelGetStatus+0x38>
    2cd4:	697b      	ldr	r3, [r7, #20]
    2cd6:	f003 4380 	and.w	r3, r3, #1073741824	; 0x40000000
    2cda:	617b      	str	r3, [r7, #20]
    2cdc:	697b      	ldr	r3, [r7, #20]
    2cde:	2b00      	cmp	r3, #0
    2ce0:	d002      	beq.n	2ce8 <ADC_ChannelGetStatus+0x44>
    2ce2:	f04f 0301 	mov.w	r3, #1
    2ce6:	e001      	b.n	2cec <ADC_ChannelGetStatus+0x48>
    2ce8:	f04f 0300 	mov.w	r3, #0
    2cec:	4618      	mov	r0, r3
    2cee:	f107 071c 	add.w	r7, r7, #28
    2cf2:	46bd      	mov	sp, r7
    2cf4:	bc80      	pop	{r7}
    2cf6:	4770      	bx	lr

00002cf8 <CLKPWR_SetPCLKDiv>:
    2cf8:	b480      	push	{r7}
    2cfa:	b085      	sub	sp, #20
    2cfc:	af00      	add	r7, sp, #0
    2cfe:	6078      	str	r0, [r7, #4]
    2d00:	6039      	str	r1, [r7, #0]
    2d02:	687b      	ldr	r3, [r7, #4]
    2d04:	2b1f      	cmp	r3, #31
    2d06:	d903      	bls.n	2d10 <CLKPWR_SetPCLKDiv+0x18>
    2d08:	687b      	ldr	r3, [r7, #4]
    2d0a:	f1a3 0320 	sub.w	r3, r3, #32
    2d0e:	e000      	b.n	2d12 <CLKPWR_SetPCLKDiv+0x1a>
    2d10:	687b      	ldr	r3, [r7, #4]
    2d12:	60fb      	str	r3, [r7, #12]
    2d14:	687b      	ldr	r3, [r7, #4]
    2d16:	2b1f      	cmp	r3, #31
    2d18:	d827      	bhi.n	2d6a <CLKPWR_SetPCLKDiv+0x72>
    2d1a:	f44f 4340 	mov.w	r3, #49152	; 0xc000
    2d1e:	f2c4 030f 	movt	r3, #16399	; 0x400f
    2d22:	f44f 4240 	mov.w	r2, #49152	; 0xc000
    2d26:	f2c4 020f 	movt	r2, #16399	; 0x400f
    2d2a:	f8d2 21a8 	ldr.w	r2, [r2, #424]	; 0x1a8
    2d2e:	4611      	mov	r1, r2
    2d30:	68fa      	ldr	r2, [r7, #12]
    2d32:	f04f 0003 	mov.w	r0, #3
    2d36:	fa00 f202 	lsl.w	r2, r0, r2
    2d3a:	ea6f 0202 	mvn.w	r2, r2
    2d3e:	400a      	ands	r2, r1
    2d40:	f8c3 21a8 	str.w	r2, [r3, #424]	; 0x1a8
    2d44:	f44f 4340 	mov.w	r3, #49152	; 0xc000
    2d48:	f2c4 030f 	movt	r3, #16399	; 0x400f
    2d4c:	f44f 4240 	mov.w	r2, #49152	; 0xc000
    2d50:	f2c4 020f 	movt	r2, #16399	; 0x400f
    2d54:	f8d2 21a8 	ldr.w	r2, [r2, #424]	; 0x1a8
    2d58:	4611      	mov	r1, r2
    2d5a:	68fa      	ldr	r2, [r7, #12]
    2d5c:	6838      	ldr	r0, [r7, #0]
    2d5e:	fa00 f202 	lsl.w	r2, r0, r2
    2d62:	430a      	orrs	r2, r1
    2d64:	f8c3 21a8 	str.w	r2, [r3, #424]	; 0x1a8
    2d68:	e026      	b.n	2db8 <CLKPWR_SetPCLKDiv+0xc0>
    2d6a:	f44f 4340 	mov.w	r3, #49152	; 0xc000
    2d6e:	f2c4 030f 	movt	r3, #16399	; 0x400f
    2d72:	f44f 4240 	mov.w	r2, #49152	; 0xc000
    2d76:	f2c4 020f 	movt	r2, #16399	; 0x400f
    2d7a:	f8d2 21ac 	ldr.w	r2, [r2, #428]	; 0x1ac
    2d7e:	4611      	mov	r1, r2
    2d80:	68fa      	ldr	r2, [r7, #12]
    2d82:	f04f 0003 	mov.w	r0, #3
    2d86:	fa00 f202 	lsl.w	r2, r0, r2
    2d8a:	ea6f 0202 	mvn.w	r2, r2
    2d8e:	400a      	ands	r2, r1
    2d90:	f8c3 21ac 	str.w	r2, [r3, #428]	; 0x1ac
    2d94:	f44f 4340 	mov.w	r3, #49152	; 0xc000
    2d98:	f2c4 030f 	movt	r3, #16399	; 0x400f
    2d9c:	f44f 4240 	mov.w	r2, #49152	; 0xc000
    2da0:	f2c4 020f 	movt	r2, #16399	; 0x400f
    2da4:	f8d2 21ac 	ldr.w	r2, [r2, #428]	; 0x1ac
    2da8:	4611      	mov	r1, r2
    2daa:	68fa      	ldr	r2, [r7, #12]
    2dac:	6838      	ldr	r0, [r7, #0]
    2dae:	fa00 f202 	lsl.w	r2, r0, r2
    2db2:	430a      	orrs	r2, r1
    2db4:	f8c3 21ac 	str.w	r2, [r3, #428]	; 0x1ac
    2db8:	f107 0714 	add.w	r7, r7, #20
    2dbc:	46bd      	mov	sp, r7
    2dbe:	bc80      	pop	{r7}
    2dc0:	4770      	bx	lr
    2dc2:	bf00      	nop

00002dc4 <CLKPWR_GetPCLKSEL>:
    2dc4:	b480      	push	{r7}
    2dc6:	b085      	sub	sp, #20
    2dc8:	af00      	add	r7, sp, #0
    2dca:	6078      	str	r0, [r7, #4]
    2dcc:	687b      	ldr	r3, [r7, #4]
    2dce:	2b1f      	cmp	r3, #31
    2dd0:	d809      	bhi.n	2de6 <CLKPWR_GetPCLKSEL+0x22>
    2dd2:	687b      	ldr	r3, [r7, #4]
    2dd4:	60fb      	str	r3, [r7, #12]
    2dd6:	f44f 4340 	mov.w	r3, #49152	; 0xc000
    2dda:	f2c4 030f 	movt	r3, #16399	; 0x400f
    2dde:	f8d3 31a8 	ldr.w	r3, [r3, #424]	; 0x1a8
    2de2:	60bb      	str	r3, [r7, #8]
    2de4:	e00a      	b.n	2dfc <CLKPWR_GetPCLKSEL+0x38>
    2de6:	687b      	ldr	r3, [r7, #4]
    2de8:	f1a3 0320 	sub.w	r3, r3, #32
    2dec:	60fb      	str	r3, [r7, #12]
    2dee:	f44f 4340 	mov.w	r3, #49152	; 0xc000
    2df2:	f2c4 030f 	movt	r3, #16399	; 0x400f
    2df6:	f8d3 31ac 	ldr.w	r3, [r3, #428]	; 0x1ac
    2dfa:	60bb      	str	r3, [r7, #8]
    2dfc:	68fb      	ldr	r3, [r7, #12]
    2dfe:	68ba      	ldr	r2, [r7, #8]
    2e00:	fa22 f303 	lsr.w	r3, r2, r3
    2e04:	f003 0303 	and.w	r3, r3, #3
    2e08:	60bb      	str	r3, [r7, #8]
    2e0a:	68bb      	ldr	r3, [r7, #8]
    2e0c:	4618      	mov	r0, r3
    2e0e:	f107 0714 	add.w	r7, r7, #20
    2e12:	46bd      	mov	sp, r7
    2e14:	bc80      	pop	{r7}
    2e16:	4770      	bx	lr

00002e18 <CLKPWR_GetPCLK>:
    2e18:	b580      	push	{r7, lr}
    2e1a:	b084      	sub	sp, #16
    2e1c:	af00      	add	r7, sp, #0
    2e1e:	6078      	str	r0, [r7, #4]
    2e20:	f240 0304 	movw	r3, #4
    2e24:	f2c1 0300 	movt	r3, #4096	; 0x1000
    2e28:	681b      	ldr	r3, [r3, #0]
    2e2a:	60bb      	str	r3, [r7, #8]
    2e2c:	6878      	ldr	r0, [r7, #4]
    2e2e:	f7ff ffc9 	bl	2dc4 <CLKPWR_GetPCLKSEL>
    2e32:	4603      	mov	r3, r0
    2e34:	60fb      	str	r3, [r7, #12]
    2e36:	68fb      	ldr	r3, [r7, #12]
    2e38:	2b03      	cmp	r3, #3
    2e3a:	d81b      	bhi.n	2e74 <CLKPWR_GetPCLK+0x5c>
    2e3c:	a201      	add	r2, pc, #4	; (adr r2, 2e44 <CLKPWR_GetPCLK+0x2c>)
    2e3e:	f852 f023 	ldr.w	pc, [r2, r3, lsl #2]
    2e42:	bf00      	nop
    2e44:	00002e55 	.word	0x00002e55
    2e48:	00002e5d 	.word	0x00002e5d
    2e4c:	00002e65 	.word	0x00002e65
    2e50:	00002e6d 	.word	0x00002e6d
    2e54:	f04f 0304 	mov.w	r3, #4
    2e58:	60fb      	str	r3, [r7, #12]
    2e5a:	e00b      	b.n	2e74 <CLKPWR_GetPCLK+0x5c>
    2e5c:	f04f 0301 	mov.w	r3, #1
    2e60:	60fb      	str	r3, [r7, #12]
    2e62:	e007      	b.n	2e74 <CLKPWR_GetPCLK+0x5c>
    2e64:	f04f 0302 	mov.w	r3, #2
    2e68:	60fb      	str	r3, [r7, #12]
    2e6a:	e003      	b.n	2e74 <CLKPWR_GetPCLK+0x5c>
    2e6c:	f04f 0308 	mov.w	r3, #8
    2e70:	60fb      	str	r3, [r7, #12]
    2e72:	bf00      	nop
    2e74:	68ba      	ldr	r2, [r7, #8]
    2e76:	68fb      	ldr	r3, [r7, #12]
    2e78:	fbb2 f3f3 	udiv	r3, r2, r3
    2e7c:	60bb      	str	r3, [r7, #8]
    2e7e:	68bb      	ldr	r3, [r7, #8]
    2e80:	4618      	mov	r0, r3
    2e82:	f107 0710 	add.w	r7, r7, #16
    2e86:	46bd      	mov	sp, r7
    2e88:	bd80      	pop	{r7, pc}
    2e8a:	bf00      	nop

00002e8c <CLKPWR_ConfigPPWR>:
    2e8c:	b480      	push	{r7}
    2e8e:	b083      	sub	sp, #12
    2e90:	af00      	add	r7, sp, #0
    2e92:	6078      	str	r0, [r7, #4]
    2e94:	460b      	mov	r3, r1
    2e96:	70fb      	strb	r3, [r7, #3]
    2e98:	78fb      	ldrb	r3, [r7, #3]
    2e9a:	2b01      	cmp	r3, #1
    2e9c:	d114      	bne.n	2ec8 <CLKPWR_ConfigPPWR+0x3c>
    2e9e:	f44f 4240 	mov.w	r2, #49152	; 0xc000
    2ea2:	f2c4 020f 	movt	r2, #16399	; 0x400f
    2ea6:	f44f 4340 	mov.w	r3, #49152	; 0xc000
    2eaa:	f2c4 030f 	movt	r3, #16399	; 0x400f
    2eae:	f8d3 30c4 	ldr.w	r3, [r3, #196]	; 0xc4
    2eb2:	4619      	mov	r1, r3
    2eb4:	6878      	ldr	r0, [r7, #4]
    2eb6:	f24f 73de 	movw	r3, #63454	; 0xf7de
    2eba:	f6ce 73ef 	movt	r3, #61423	; 0xefef
    2ebe:	4003      	ands	r3, r0
    2ec0:	430b      	orrs	r3, r1
    2ec2:	f8c2 30c4 	str.w	r3, [r2, #196]	; 0xc4
    2ec6:	e018      	b.n	2efa <CLKPWR_ConfigPPWR+0x6e>
    2ec8:	78fb      	ldrb	r3, [r7, #3]
    2eca:	2b00      	cmp	r3, #0
    2ecc:	d115      	bne.n	2efa <CLKPWR_ConfigPPWR+0x6e>
    2ece:	f44f 4240 	mov.w	r2, #49152	; 0xc000
    2ed2:	f2c4 020f 	movt	r2, #16399	; 0x400f
    2ed6:	f44f 4340 	mov.w	r3, #49152	; 0xc000
    2eda:	f2c4 030f 	movt	r3, #16399	; 0x400f
    2ede:	f8d3 30c4 	ldr.w	r3, [r3, #196]	; 0xc4
    2ee2:	4619      	mov	r1, r3
    2ee4:	687b      	ldr	r3, [r7, #4]
    2ee6:	ea6f 0303 	mvn.w	r3, r3
    2eea:	4019      	ands	r1, r3
    2eec:	f24f 73de 	movw	r3, #63454	; 0xf7de
    2ef0:	f6ce 73ef 	movt	r3, #61423	; 0xefef
    2ef4:	400b      	ands	r3, r1
    2ef6:	f8c2 30c4 	str.w	r3, [r2, #196]	; 0xc4
    2efa:	f107 070c 	add.w	r7, r7, #12
    2efe:	46bd      	mov	sp, r7
    2f00:	bc80      	pop	{r7}
    2f02:	4770      	bx	lr

00002f04 <NVIC_EnableIRQ>:
    2f04:	b480      	push	{r7}
    2f06:	b083      	sub	sp, #12
    2f08:	af00      	add	r7, sp, #0
    2f0a:	4603      	mov	r3, r0
    2f0c:	71fb      	strb	r3, [r7, #7]
    2f0e:	f44f 4361 	mov.w	r3, #57600	; 0xe100
    2f12:	f2ce 0300 	movt	r3, #57344	; 0xe000
    2f16:	f997 2007 	ldrsb.w	r2, [r7, #7]
    2f1a:	ea4f 1252 	mov.w	r2, r2, lsr #5
    2f1e:	79f9      	ldrb	r1, [r7, #7]
    2f20:	f001 011f 	and.w	r1, r1, #31
    2f24:	f04f 0001 	mov.w	r0, #1
    2f28:	fa00 f101 	lsl.w	r1, r0, r1
    2f2c:	f843 1022 	str.w	r1, [r3, r2, lsl #2]
    2f30:	f107 070c 	add.w	r7, r7, #12
    2f34:	46bd      	mov	sp, r7
    2f36:	bc80      	pop	{r7}
    2f38:	4770      	bx	lr
    2f3a:	bf00      	nop

00002f3c <NVIC_DisableIRQ>:
    2f3c:	b480      	push	{r7}
    2f3e:	b083      	sub	sp, #12
    2f40:	af00      	add	r7, sp, #0
    2f42:	4603      	mov	r3, r0
    2f44:	71fb      	strb	r3, [r7, #7]
    2f46:	f44f 4361 	mov.w	r3, #57600	; 0xe100
    2f4a:	f2ce 0300 	movt	r3, #57344	; 0xe000
    2f4e:	f997 2007 	ldrsb.w	r2, [r7, #7]
    2f52:	ea4f 1252 	mov.w	r2, r2, lsr #5
    2f56:	79f9      	ldrb	r1, [r7, #7]
    2f58:	f001 011f 	and.w	r1, r1, #31
    2f5c:	f04f 0001 	mov.w	r0, #1
    2f60:	fa00 f101 	lsl.w	r1, r0, r1
    2f64:	f102 0220 	add.w	r2, r2, #32
    2f68:	f843 1022 	str.w	r1, [r3, r2, lsl #2]
    2f6c:	f107 070c 	add.w	r7, r7, #12
    2f70:	46bd      	mov	sp, r7
    2f72:	bc80      	pop	{r7}
    2f74:	4770      	bx	lr
    2f76:	bf00      	nop

00002f78 <I2C_getNum>:
    2f78:	b480      	push	{r7}
    2f7a:	b083      	sub	sp, #12
    2f7c:	af00      	add	r7, sp, #0
    2f7e:	6078      	str	r0, [r7, #4]
    2f80:	687a      	ldr	r2, [r7, #4]
    2f82:	f44f 4340 	mov.w	r3, #49152	; 0xc000
    2f86:	f2c4 0301 	movt	r3, #16385	; 0x4001
    2f8a:	429a      	cmp	r2, r3
    2f8c:	d102      	bne.n	2f94 <I2C_getNum+0x1c>
    2f8e:	f04f 0300 	mov.w	r3, #0
    2f92:	e015      	b.n	2fc0 <I2C_getNum+0x48>
    2f94:	687a      	ldr	r2, [r7, #4]
    2f96:	f44f 4340 	mov.w	r3, #49152	; 0xc000
    2f9a:	f2c4 0305 	movt	r3, #16389	; 0x4005
    2f9e:	429a      	cmp	r2, r3
    2fa0:	d102      	bne.n	2fa8 <I2C_getNum+0x30>
    2fa2:	f04f 0301 	mov.w	r3, #1
    2fa6:	e00b      	b.n	2fc0 <I2C_getNum+0x48>
    2fa8:	687a      	ldr	r2, [r7, #4]
    2faa:	f04f 0300 	mov.w	r3, #0
    2fae:	f2c4 030a 	movt	r3, #16394	; 0x400a
    2fb2:	429a      	cmp	r2, r3
    2fb4:	d102      	bne.n	2fbc <I2C_getNum+0x44>
    2fb6:	f04f 0302 	mov.w	r3, #2
    2fba:	e001      	b.n	2fc0 <I2C_getNum+0x48>
    2fbc:	f04f 33ff 	mov.w	r3, #4294967295
    2fc0:	4618      	mov	r0, r3
    2fc2:	f107 070c 	add.w	r7, r7, #12
    2fc6:	46bd      	mov	sp, r7
    2fc8:	bc80      	pop	{r7}
    2fca:	4770      	bx	lr

00002fcc <I2C_Start>:
    2fcc:	b480      	push	{r7}
    2fce:	b085      	sub	sp, #20
    2fd0:	af00      	add	r7, sp, #0
    2fd2:	6078      	str	r0, [r7, #4]
    2fd4:	687b      	ldr	r3, [r7, #4]
    2fd6:	689b      	ldr	r3, [r3, #8]
    2fd8:	73fb      	strb	r3, [r7, #15]
    2fda:	687b      	ldr	r3, [r7, #4]
    2fdc:	f04f 0208 	mov.w	r2, #8
    2fe0:	619a      	str	r2, [r3, #24]
    2fe2:	687b      	ldr	r3, [r7, #4]
    2fe4:	f04f 0220 	mov.w	r2, #32
    2fe8:	601a      	str	r2, [r3, #0]
    2fea:	bf00      	nop
    2fec:	687b      	ldr	r3, [r7, #4]
    2fee:	681b      	ldr	r3, [r3, #0]
    2ff0:	f003 0308 	and.w	r3, r3, #8
    2ff4:	2b00      	cmp	r3, #0
    2ff6:	d0f9      	beq.n	2fec <I2C_Start+0x20>
    2ff8:	687b      	ldr	r3, [r7, #4]
    2ffa:	f04f 0220 	mov.w	r2, #32
    2ffe:	619a      	str	r2, [r3, #24]
    3000:	687b      	ldr	r3, [r7, #4]
    3002:	685b      	ldr	r3, [r3, #4]
    3004:	f003 03f8 	and.w	r3, r3, #248	; 0xf8
    3008:	4618      	mov	r0, r3
    300a:	f107 0714 	add.w	r7, r7, #20
    300e:	46bd      	mov	sp, r7
    3010:	bc80      	pop	{r7}
    3012:	4770      	bx	lr

00003014 <I2C_Stop>:
    3014:	b480      	push	{r7}
    3016:	b083      	sub	sp, #12
    3018:	af00      	add	r7, sp, #0
    301a:	6078      	str	r0, [r7, #4]
    301c:	687b      	ldr	r3, [r7, #4]
    301e:	681b      	ldr	r3, [r3, #0]
    3020:	f003 0320 	and.w	r3, r3, #32
    3024:	2b00      	cmp	r3, #0
    3026:	d003      	beq.n	3030 <I2C_Stop+0x1c>
    3028:	687b      	ldr	r3, [r7, #4]
    302a:	f04f 0220 	mov.w	r2, #32
    302e:	619a      	str	r2, [r3, #24]
    3030:	687b      	ldr	r3, [r7, #4]
    3032:	f04f 0210 	mov.w	r2, #16
    3036:	601a      	str	r2, [r3, #0]
    3038:	687b      	ldr	r3, [r7, #4]
    303a:	f04f 0208 	mov.w	r2, #8
    303e:	619a      	str	r2, [r3, #24]
    3040:	f107 070c 	add.w	r7, r7, #12
    3044:	46bd      	mov	sp, r7
    3046:	bc80      	pop	{r7}
    3048:	4770      	bx	lr
    304a:	bf00      	nop

0000304c <I2C_SendByte>:
    304c:	b480      	push	{r7}
    304e:	b083      	sub	sp, #12
    3050:	af00      	add	r7, sp, #0
    3052:	6078      	str	r0, [r7, #4]
    3054:	460b      	mov	r3, r1
    3056:	70fb      	strb	r3, [r7, #3]
    3058:	687b      	ldr	r3, [r7, #4]
    305a:	681b      	ldr	r3, [r3, #0]
    305c:	f003 0320 	and.w	r3, r3, #32
    3060:	2b00      	cmp	r3, #0
    3062:	d003      	beq.n	306c <I2C_SendByte+0x20>
    3064:	687b      	ldr	r3, [r7, #4]
    3066:	f04f 0220 	mov.w	r2, #32
    306a:	619a      	str	r2, [r3, #24]
    306c:	78fa      	ldrb	r2, [r7, #3]
    306e:	687b      	ldr	r3, [r7, #4]
    3070:	609a      	str	r2, [r3, #8]
    3072:	687b      	ldr	r3, [r7, #4]
    3074:	f04f 0208 	mov.w	r2, #8
    3078:	619a      	str	r2, [r3, #24]
    307a:	bf00      	nop
    307c:	687b      	ldr	r3, [r7, #4]
    307e:	681b      	ldr	r3, [r3, #0]
    3080:	f003 0308 	and.w	r3, r3, #8
    3084:	2b00      	cmp	r3, #0
    3086:	d0f9      	beq.n	307c <I2C_SendByte+0x30>
    3088:	687b      	ldr	r3, [r7, #4]
    308a:	685b      	ldr	r3, [r3, #4]
    308c:	f003 03f8 	and.w	r3, r3, #248	; 0xf8
    3090:	4618      	mov	r0, r3
    3092:	f107 070c 	add.w	r7, r7, #12
    3096:	46bd      	mov	sp, r7
    3098:	bc80      	pop	{r7}
    309a:	4770      	bx	lr

0000309c <I2C_GetByte>:
    309c:	b480      	push	{r7}
    309e:	b085      	sub	sp, #20
    30a0:	af00      	add	r7, sp, #0
    30a2:	60f8      	str	r0, [r7, #12]
    30a4:	60b9      	str	r1, [r7, #8]
    30a6:	4613      	mov	r3, r2
    30a8:	71fb      	strb	r3, [r7, #7]
    30aa:	79fb      	ldrb	r3, [r7, #7]
    30ac:	2b01      	cmp	r3, #1
    30ae:	d104      	bne.n	30ba <I2C_GetByte+0x1e>
    30b0:	68fb      	ldr	r3, [r7, #12]
    30b2:	f04f 0204 	mov.w	r2, #4
    30b6:	601a      	str	r2, [r3, #0]
    30b8:	e003      	b.n	30c2 <I2C_GetByte+0x26>
    30ba:	68fb      	ldr	r3, [r7, #12]
    30bc:	f04f 0204 	mov.w	r2, #4
    30c0:	619a      	str	r2, [r3, #24]
    30c2:	68fb      	ldr	r3, [r7, #12]
    30c4:	f04f 0208 	mov.w	r2, #8
    30c8:	619a      	str	r2, [r3, #24]
    30ca:	bf00      	nop
    30cc:	68fb      	ldr	r3, [r7, #12]
    30ce:	681b      	ldr	r3, [r3, #0]
    30d0:	f003 0308 	and.w	r3, r3, #8
    30d4:	2b00      	cmp	r3, #0
    30d6:	d0f9      	beq.n	30cc <I2C_GetByte+0x30>
    30d8:	68fb      	ldr	r3, [r7, #12]
    30da:	689b      	ldr	r3, [r3, #8]
    30dc:	b2da      	uxtb	r2, r3
    30de:	68bb      	ldr	r3, [r7, #8]
    30e0:	701a      	strb	r2, [r3, #0]
    30e2:	68fb      	ldr	r3, [r7, #12]
    30e4:	685b      	ldr	r3, [r3, #4]
    30e6:	f003 03f8 	and.w	r3, r3, #248	; 0xf8
    30ea:	4618      	mov	r0, r3
    30ec:	f107 0714 	add.w	r7, r7, #20
    30f0:	46bd      	mov	sp, r7
    30f2:	bc80      	pop	{r7}
    30f4:	4770      	bx	lr
    30f6:	bf00      	nop

000030f8 <I2C_SetClock>:
    30f8:	b580      	push	{r7, lr}
    30fa:	b084      	sub	sp, #16
    30fc:	af00      	add	r7, sp, #0
    30fe:	6078      	str	r0, [r7, #4]
    3100:	6039      	str	r1, [r7, #0]
    3102:	687a      	ldr	r2, [r7, #4]
    3104:	f44f 4340 	mov.w	r3, #49152	; 0xc000
    3108:	f2c4 0301 	movt	r3, #16385	; 0x4001
    310c:	429a      	cmp	r2, r3
    310e:	d109      	bne.n	3124 <I2C_SetClock+0x2c>
    3110:	f04f 000e 	mov.w	r0, #14
    3114:	f7ff fe80 	bl	2e18 <CLKPWR_GetPCLK>
    3118:	4602      	mov	r2, r0
    311a:	683b      	ldr	r3, [r7, #0]
    311c:	fbb2 f3f3 	udiv	r3, r2, r3
    3120:	60fb      	str	r3, [r7, #12]
    3122:	e020      	b.n	3166 <I2C_SetClock+0x6e>
    3124:	687a      	ldr	r2, [r7, #4]
    3126:	f44f 4340 	mov.w	r3, #49152	; 0xc000
    312a:	f2c4 0305 	movt	r3, #16389	; 0x4005
    312e:	429a      	cmp	r2, r3
    3130:	d109      	bne.n	3146 <I2C_SetClock+0x4e>
    3132:	f04f 0026 	mov.w	r0, #38	; 0x26
    3136:	f7ff fe6f 	bl	2e18 <CLKPWR_GetPCLK>
    313a:	4602      	mov	r2, r0
    313c:	683b      	ldr	r3, [r7, #0]
    313e:	fbb2 f3f3 	udiv	r3, r2, r3
    3142:	60fb      	str	r3, [r7, #12]
    3144:	e00f      	b.n	3166 <I2C_SetClock+0x6e>
    3146:	687a      	ldr	r2, [r7, #4]
    3148:	f04f 0300 	mov.w	r3, #0
    314c:	f2c4 030a 	movt	r3, #16394	; 0x400a
    3150:	429a      	cmp	r2, r3
    3152:	d108      	bne.n	3166 <I2C_SetClock+0x6e>
    3154:	f04f 0034 	mov.w	r0, #52	; 0x34
    3158:	f7ff fe5e 	bl	2e18 <CLKPWR_GetPCLK>
    315c:	4602      	mov	r2, r0
    315e:	683b      	ldr	r3, [r7, #0]
    3160:	fbb2 f3f3 	udiv	r3, r2, r3
    3164:	60fb      	str	r3, [r7, #12]
    3166:	68fb      	ldr	r3, [r7, #12]
    3168:	ea4f 0253 	mov.w	r2, r3, lsr #1
    316c:	687b      	ldr	r3, [r7, #4]
    316e:	611a      	str	r2, [r3, #16]
    3170:	687b      	ldr	r3, [r7, #4]
    3172:	691b      	ldr	r3, [r3, #16]
    3174:	68fa      	ldr	r2, [r7, #12]
    3176:	1ad2      	subs	r2, r2, r3
    3178:	687b      	ldr	r3, [r7, #4]
    317a:	615a      	str	r2, [r3, #20]
    317c:	f107 0710 	add.w	r7, r7, #16
    3180:	46bd      	mov	sp, r7
    3182:	bd80      	pop	{r7, pc}

00003184 <I2C_Init>:
    3184:	b580      	push	{r7, lr}
    3186:	b084      	sub	sp, #16
    3188:	af00      	add	r7, sp, #0
    318a:	6078      	str	r0, [r7, #4]
    318c:	6039      	str	r1, [r7, #0]
    318e:	f04f 0300 	mov.w	r3, #0
    3192:	733b      	strb	r3, [r7, #12]
    3194:	f04f 0300 	mov.w	r3, #0
    3198:	72fb      	strb	r3, [r7, #11]
    319a:	687a      	ldr	r2, [r7, #4]
    319c:	f44f 4340 	mov.w	r3, #49152	; 0xc000
    31a0:	f2c4 0301 	movt	r3, #16385	; 0x4001
    31a4:	429a      	cmp	r2, r3
    31a6:	d128      	bne.n	31fa <I2C_Init+0x76>
    31a8:	f04f 0301 	mov.w	r3, #1
    31ac:	72bb      	strb	r3, [r7, #10]
    31ae:	f04f 0300 	mov.w	r3, #0
    31b2:	723b      	strb	r3, [r7, #8]
    31b4:	f04f 031b 	mov.w	r3, #27
    31b8:	727b      	strb	r3, [r7, #9]
    31ba:	f107 0308 	add.w	r3, r7, #8
    31be:	4618      	mov	r0, r3
    31c0:	f000 fbc2 	bl	3948 <PINSEL_ConfigPin>
    31c4:	f04f 031c 	mov.w	r3, #28
    31c8:	727b      	strb	r3, [r7, #9]
    31ca:	f107 0308 	add.w	r3, r7, #8
    31ce:	4618      	mov	r0, r3
    31d0:	f000 fbba 	bl	3948 <PINSEL_ConfigPin>
    31d4:	f04f 0000 	mov.w	r0, #0
    31d8:	f04f 0101 	mov.w	r1, #1
    31dc:	f000 fb96 	bl	390c <PINSEL_SetI2C0Pins>
    31e0:	f04f 0080 	mov.w	r0, #128	; 0x80
    31e4:	f04f 0101 	mov.w	r1, #1
    31e8:	f7ff fe50 	bl	2e8c <CLKPWR_ConfigPPWR>
    31ec:	f04f 000e 	mov.w	r0, #14
    31f0:	f04f 0102 	mov.w	r1, #2
    31f4:	f7ff fd80 	bl	2cf8 <CLKPWR_SetPCLKDiv>
    31f8:	e052      	b.n	32a0 <I2C_Init+0x11c>
    31fa:	687a      	ldr	r2, [r7, #4]
    31fc:	f44f 4340 	mov.w	r3, #49152	; 0xc000
    3200:	f2c4 0305 	movt	r3, #16389	; 0x4005
    3204:	429a      	cmp	r2, r3
    3206:	d122      	bne.n	324e <I2C_Init+0xca>
    3208:	f04f 0303 	mov.w	r3, #3
    320c:	72bb      	strb	r3, [r7, #10]
    320e:	f04f 0300 	mov.w	r3, #0
    3212:	723b      	strb	r3, [r7, #8]
    3214:	f04f 0313 	mov.w	r3, #19
    3218:	727b      	strb	r3, [r7, #9]
    321a:	f107 0308 	add.w	r3, r7, #8
    321e:	4618      	mov	r0, r3
    3220:	f000 fb92 	bl	3948 <PINSEL_ConfigPin>
    3224:	f04f 0314 	mov.w	r3, #20
    3228:	727b      	strb	r3, [r7, #9]
    322a:	f107 0308 	add.w	r3, r7, #8
    322e:	4618      	mov	r0, r3
    3230:	f000 fb8a 	bl	3948 <PINSEL_ConfigPin>
    3234:	f44f 2000 	mov.w	r0, #524288	; 0x80000
    3238:	f04f 0101 	mov.w	r1, #1
    323c:	f7ff fe26 	bl	2e8c <CLKPWR_ConfigPPWR>
    3240:	f04f 0026 	mov.w	r0, #38	; 0x26
    3244:	f04f 0102 	mov.w	r1, #2
    3248:	f7ff fd56 	bl	2cf8 <CLKPWR_SetPCLKDiv>
    324c:	e028      	b.n	32a0 <I2C_Init+0x11c>
    324e:	687a      	ldr	r2, [r7, #4]
    3250:	f04f 0300 	mov.w	r3, #0
    3254:	f2c4 030a 	movt	r3, #16394	; 0x400a
    3258:	429a      	cmp	r2, r3
    325a:	d12f      	bne.n	32bc <I2C_Init+0x138>
    325c:	f04f 0302 	mov.w	r3, #2
    3260:	72bb      	strb	r3, [r7, #10]
    3262:	f04f 0300 	mov.w	r3, #0
    3266:	723b      	strb	r3, [r7, #8]
    3268:	f04f 030a 	mov.w	r3, #10
    326c:	727b      	strb	r3, [r7, #9]
    326e:	f107 0308 	add.w	r3, r7, #8
    3272:	4618      	mov	r0, r3
    3274:	f000 fb68 	bl	3948 <PINSEL_ConfigPin>
    3278:	f04f 030b 	mov.w	r3, #11
    327c:	727b      	strb	r3, [r7, #9]
    327e:	f107 0308 	add.w	r3, r7, #8
    3282:	4618      	mov	r0, r3
    3284:	f000 fb60 	bl	3948 <PINSEL_ConfigPin>
    3288:	f04f 6080 	mov.w	r0, #67108864	; 0x4000000
    328c:	f04f 0101 	mov.w	r1, #1
    3290:	f7ff fdfc 	bl	2e8c <CLKPWR_ConfigPPWR>
    3294:	f04f 0034 	mov.w	r0, #52	; 0x34
    3298:	f04f 0102 	mov.w	r1, #2
    329c:	f7ff fd2c 	bl	2cf8 <CLKPWR_SetPCLKDiv>
    32a0:	6878      	ldr	r0, [r7, #4]
    32a2:	6839      	ldr	r1, [r7, #0]
    32a4:	f7ff ff28 	bl	30f8 <I2C_SetClock>
    32a8:	687b      	ldr	r3, [r7, #4]
    32aa:	f04f 0264 	mov.w	r2, #100	; 0x64
    32ae:	619a      	str	r2, [r3, #24]
    32b0:	6878      	ldr	r0, [r7, #4]
    32b2:	f04f 0101 	mov.w	r1, #1
    32b6:	f000 f83d 	bl	3334 <I2C_Cmd>
    32ba:	e000      	b.n	32be <I2C_Init+0x13a>
    32bc:	bf00      	nop
    32be:	f107 0710 	add.w	r7, r7, #16
    32c2:	46bd      	mov	sp, r7
    32c4:	bd80      	pop	{r7, pc}
    32c6:	bf00      	nop

000032c8 <I2C_DeInit>:
    32c8:	b580      	push	{r7, lr}
    32ca:	b082      	sub	sp, #8
    32cc:	af00      	add	r7, sp, #0
    32ce:	6078      	str	r0, [r7, #4]
    32d0:	687b      	ldr	r3, [r7, #4]
    32d2:	f04f 0240 	mov.w	r2, #64	; 0x40
    32d6:	619a      	str	r2, [r3, #24]
    32d8:	687a      	ldr	r2, [r7, #4]
    32da:	f44f 4340 	mov.w	r3, #49152	; 0xc000
    32de:	f2c4 0301 	movt	r3, #16385	; 0x4001
    32e2:	429a      	cmp	r2, r3
    32e4:	d106      	bne.n	32f4 <I2C_DeInit+0x2c>
    32e6:	f04f 0080 	mov.w	r0, #128	; 0x80
    32ea:	f04f 0100 	mov.w	r1, #0
    32ee:	f7ff fdcd 	bl	2e8c <CLKPWR_ConfigPPWR>
    32f2:	e01a      	b.n	332a <I2C_DeInit+0x62>
    32f4:	687a      	ldr	r2, [r7, #4]
    32f6:	f44f 4340 	mov.w	r3, #49152	; 0xc000
    32fa:	f2c4 0305 	movt	r3, #16389	; 0x4005
    32fe:	429a      	cmp	r2, r3
    3300:	d106      	bne.n	3310 <I2C_DeInit+0x48>
    3302:	f44f 2000 	mov.w	r0, #524288	; 0x80000
    3306:	f04f 0100 	mov.w	r1, #0
    330a:	f7ff fdbf 	bl	2e8c <CLKPWR_ConfigPPWR>
    330e:	e00c      	b.n	332a <I2C_DeInit+0x62>
    3310:	687a      	ldr	r2, [r7, #4]
    3312:	f04f 0300 	mov.w	r3, #0
    3316:	f2c4 030a 	movt	r3, #16394	; 0x400a
    331a:	429a      	cmp	r2, r3
    331c:	d105      	bne.n	332a <I2C_DeInit+0x62>
    331e:	f04f 6080 	mov.w	r0, #67108864	; 0x4000000
    3322:	f04f 0100 	mov.w	r1, #0
    3326:	f7ff fdb1 	bl	2e8c <CLKPWR_ConfigPPWR>
    332a:	f107 0708 	add.w	r7, r7, #8
    332e:	46bd      	mov	sp, r7
    3330:	bd80      	pop	{r7, pc}
    3332:	bf00      	nop

00003334 <I2C_Cmd>:
    3334:	b480      	push	{r7}
    3336:	b083      	sub	sp, #12
    3338:	af00      	add	r7, sp, #0
    333a:	6078      	str	r0, [r7, #4]
    333c:	460b      	mov	r3, r1
    333e:	70fb      	strb	r3, [r7, #3]
    3340:	78fb      	ldrb	r3, [r7, #3]
    3342:	2b01      	cmp	r3, #1
    3344:	d104      	bne.n	3350 <I2C_Cmd+0x1c>
    3346:	687b      	ldr	r3, [r7, #4]
    3348:	f04f 0240 	mov.w	r2, #64	; 0x40
    334c:	601a      	str	r2, [r3, #0]
    334e:	e003      	b.n	3358 <I2C_Cmd+0x24>
    3350:	687b      	ldr	r3, [r7, #4]
    3352:	f04f 0240 	mov.w	r2, #64	; 0x40
    3356:	619a      	str	r2, [r3, #24]
    3358:	f107 070c 	add.w	r7, r7, #12
    335c:	46bd      	mov	sp, r7
    335e:	bc80      	pop	{r7}
    3360:	4770      	bx	lr
    3362:	bf00      	nop

00003364 <I2C_IntCmd>:
    3364:	b580      	push	{r7, lr}
    3366:	b082      	sub	sp, #8
    3368:	af00      	add	r7, sp, #0
    336a:	6078      	str	r0, [r7, #4]
    336c:	460b      	mov	r3, r1
    336e:	70fb      	strb	r3, [r7, #3]
    3370:	78fb      	ldrb	r3, [r7, #3]
    3372:	2b00      	cmp	r3, #0
    3374:	d023      	beq.n	33be <I2C_IntCmd+0x5a>
    3376:	687a      	ldr	r2, [r7, #4]
    3378:	f44f 4340 	mov.w	r3, #49152	; 0xc000
    337c:	f2c4 0301 	movt	r3, #16385	; 0x4001
    3380:	429a      	cmp	r2, r3
    3382:	d104      	bne.n	338e <I2C_IntCmd+0x2a>
    3384:	f04f 000a 	mov.w	r0, #10
    3388:	f7ff fdbc 	bl	2f04 <NVIC_EnableIRQ>
    338c:	e03a      	b.n	3404 <I2C_IntCmd+0xa0>
    338e:	687a      	ldr	r2, [r7, #4]
    3390:	f44f 4340 	mov.w	r3, #49152	; 0xc000
    3394:	f2c4 0305 	movt	r3, #16389	; 0x4005
    3398:	429a      	cmp	r2, r3
    339a:	d104      	bne.n	33a6 <I2C_IntCmd+0x42>
    339c:	f04f 000b 	mov.w	r0, #11
    33a0:	f7ff fdb0 	bl	2f04 <NVIC_EnableIRQ>
    33a4:	e02e      	b.n	3404 <I2C_IntCmd+0xa0>
    33a6:	687a      	ldr	r2, [r7, #4]
    33a8:	f04f 0300 	mov.w	r3, #0
    33ac:	f2c4 030a 	movt	r3, #16394	; 0x400a
    33b0:	429a      	cmp	r2, r3
    33b2:	d127      	bne.n	3404 <I2C_IntCmd+0xa0>
    33b4:	f04f 000c 	mov.w	r0, #12
    33b8:	f7ff fda4 	bl	2f04 <NVIC_EnableIRQ>
    33bc:	e022      	b.n	3404 <I2C_IntCmd+0xa0>
    33be:	687a      	ldr	r2, [r7, #4]
    33c0:	f44f 4340 	mov.w	r3, #49152	; 0xc000
    33c4:	f2c4 0301 	movt	r3, #16385	; 0x4001
    33c8:	429a      	cmp	r2, r3
    33ca:	d104      	bne.n	33d6 <I2C_IntCmd+0x72>
    33cc:	f04f 000a 	mov.w	r0, #10
    33d0:	f7ff fdb4 	bl	2f3c <NVIC_DisableIRQ>
    33d4:	e016      	b.n	3404 <I2C_IntCmd+0xa0>
    33d6:	687a      	ldr	r2, [r7, #4]
    33d8:	f44f 4340 	mov.w	r3, #49152	; 0xc000
    33dc:	f2c4 0305 	movt	r3, #16389	; 0x4005
    33e0:	429a      	cmp	r2, r3
    33e2:	d104      	bne.n	33ee <I2C_IntCmd+0x8a>
    33e4:	f04f 000b 	mov.w	r0, #11
    33e8:	f7ff fda8 	bl	2f3c <NVIC_DisableIRQ>
    33ec:	e00a      	b.n	3404 <I2C_IntCmd+0xa0>
    33ee:	687a      	ldr	r2, [r7, #4]
    33f0:	f04f 0300 	mov.w	r3, #0
    33f4:	f2c4 030a 	movt	r3, #16394	; 0x400a
    33f8:	429a      	cmp	r2, r3
    33fa:	d103      	bne.n	3404 <I2C_IntCmd+0xa0>
    33fc:	f04f 000c 	mov.w	r0, #12
    3400:	f7ff fd9c 	bl	2f3c <NVIC_DisableIRQ>
    3404:	f107 0708 	add.w	r7, r7, #8
    3408:	46bd      	mov	sp, r7
    340a:	bd80      	pop	{r7, pc}

0000340c <I2C_MasterTransferData>:
    340c:	b580      	push	{r7, lr}
    340e:	b088      	sub	sp, #32
    3410:	af00      	add	r7, sp, #0
    3412:	60f8      	str	r0, [r7, #12]
    3414:	60b9      	str	r1, [r7, #8]
    3416:	4613      	mov	r3, r2
    3418:	71fb      	strb	r3, [r7, #7]
    341a:	68bb      	ldr	r3, [r7, #8]
    341c:	685b      	ldr	r3, [r3, #4]
    341e:	61fb      	str	r3, [r7, #28]
    3420:	68bb      	ldr	r3, [r7, #8]
    3422:	691b      	ldr	r3, [r3, #16]
    3424:	61bb      	str	r3, [r7, #24]
    3426:	68bb      	ldr	r3, [r7, #8]
    3428:	f04f 0200 	mov.w	r2, #0
    342c:	60da      	str	r2, [r3, #12]
    342e:	68bb      	ldr	r3, [r7, #8]
    3430:	f04f 0200 	mov.w	r2, #0
    3434:	619a      	str	r2, [r3, #24]
    3436:	68bb      	ldr	r3, [r7, #8]
    3438:	f04f 0200 	mov.w	r2, #0
    343c:	625a      	str	r2, [r3, #36]	; 0x24
    343e:	79fb      	ldrb	r3, [r7, #7]
    3440:	2b00      	cmp	r3, #0
    3442:	f040 8155 	bne.w	36f0 <I2C_MasterTransferData+0x2e4>
    3446:	68bb      	ldr	r3, [r7, #8]
    3448:	f04f 0200 	mov.w	r2, #0
    344c:	621a      	str	r2, [r3, #32]
    344e:	e00c      	b.n	346a <I2C_MasterTransferData+0x5e>
    3450:	bf00      	nop
    3452:	e00a      	b.n	346a <I2C_MasterTransferData+0x5e>
    3454:	bf00      	nop
    3456:	e008      	b.n	346a <I2C_MasterTransferData+0x5e>
    3458:	bf00      	nop
    345a:	e006      	b.n	346a <I2C_MasterTransferData+0x5e>
    345c:	bf00      	nop
    345e:	e004      	b.n	346a <I2C_MasterTransferData+0x5e>
    3460:	bf00      	nop
    3462:	e002      	b.n	346a <I2C_MasterTransferData+0x5e>
    3464:	bf00      	nop
    3466:	e000      	b.n	346a <I2C_MasterTransferData+0x5e>
    3468:	bf00      	nop
    346a:	68bb      	ldr	r3, [r7, #8]
    346c:	685b      	ldr	r3, [r3, #4]
    346e:	61fb      	str	r3, [r7, #28]
    3470:	68bb      	ldr	r3, [r7, #8]
    3472:	691b      	ldr	r3, [r3, #16]
    3474:	61bb      	str	r3, [r7, #24]
    3476:	68bb      	ldr	r3, [r7, #8]
    3478:	f04f 0200 	mov.w	r2, #0
    347c:	60da      	str	r2, [r3, #12]
    347e:	68bb      	ldr	r3, [r7, #8]
    3480:	f04f 0200 	mov.w	r2, #0
    3484:	619a      	str	r2, [r3, #24]
    3486:	f04f 0300 	mov.w	r3, #0
    348a:	617b      	str	r3, [r7, #20]
    348c:	68f8      	ldr	r0, [r7, #12]
    348e:	f7ff fd9d 	bl	2fcc <I2C_Start>
    3492:	4603      	mov	r3, r0
    3494:	617b      	str	r3, [r7, #20]
    3496:	697b      	ldr	r3, [r7, #20]
    3498:	2b08      	cmp	r3, #8
    349a:	d012      	beq.n	34c2 <I2C_MasterTransferData+0xb6>
    349c:	697b      	ldr	r3, [r7, #20]
    349e:	2b10      	cmp	r3, #16
    34a0:	d00f      	beq.n	34c2 <I2C_MasterTransferData+0xb6>
    34a2:	68bb      	ldr	r3, [r7, #8]
    34a4:	6a1b      	ldr	r3, [r3, #32]
    34a6:	f103 0201 	add.w	r2, r3, #1
    34aa:	68bb      	ldr	r3, [r7, #8]
    34ac:	621a      	str	r2, [r3, #32]
    34ae:	68bb      	ldr	r3, [r7, #8]
    34b0:	6a1a      	ldr	r2, [r3, #32]
    34b2:	68bb      	ldr	r3, [r7, #8]
    34b4:	69db      	ldr	r3, [r3, #28]
    34b6:	429a      	cmp	r2, r3
    34b8:	d9ca      	bls.n	3450 <I2C_MasterTransferData+0x44>
    34ba:	68bb      	ldr	r3, [r7, #8]
    34bc:	697a      	ldr	r2, [r7, #20]
    34be:	625a      	str	r2, [r3, #36]	; 0x24
    34c0:	e110      	b.n	36e4 <I2C_MasterTransferData+0x2d8>
    34c2:	68bb      	ldr	r3, [r7, #8]
    34c4:	689b      	ldr	r3, [r3, #8]
    34c6:	2b00      	cmp	r3, #0
    34c8:	d053      	beq.n	3572 <I2C_MasterTransferData+0x166>
    34ca:	68bb      	ldr	r3, [r7, #8]
    34cc:	685b      	ldr	r3, [r3, #4]
    34ce:	2b00      	cmp	r3, #0
    34d0:	d04f      	beq.n	3572 <I2C_MasterTransferData+0x166>
    34d2:	68bb      	ldr	r3, [r7, #8]
    34d4:	681b      	ldr	r3, [r3, #0]
    34d6:	b2db      	uxtb	r3, r3
    34d8:	ea4f 0343 	mov.w	r3, r3, lsl #1
    34dc:	b2db      	uxtb	r3, r3
    34de:	68f8      	ldr	r0, [r7, #12]
    34e0:	4619      	mov	r1, r3
    34e2:	f7ff fdb3 	bl	304c <I2C_SendByte>
    34e6:	4603      	mov	r3, r0
    34e8:	617b      	str	r3, [r7, #20]
    34ea:	697b      	ldr	r3, [r7, #20]
    34ec:	2b18      	cmp	r3, #24
    34ee:	d039      	beq.n	3564 <I2C_MasterTransferData+0x158>
    34f0:	68bb      	ldr	r3, [r7, #8]
    34f2:	6a1b      	ldr	r3, [r3, #32]
    34f4:	f103 0201 	add.w	r2, r3, #1
    34f8:	68bb      	ldr	r3, [r7, #8]
    34fa:	621a      	str	r2, [r3, #32]
    34fc:	68bb      	ldr	r3, [r7, #8]
    34fe:	6a1a      	ldr	r2, [r3, #32]
    3500:	68bb      	ldr	r3, [r7, #8]
    3502:	69db      	ldr	r3, [r3, #28]
    3504:	429a      	cmp	r2, r3
    3506:	d9a5      	bls.n	3454 <I2C_MasterTransferData+0x48>
    3508:	697b      	ldr	r3, [r7, #20]
    350a:	f443 7200 	orr.w	r2, r3, #512	; 0x200
    350e:	68bb      	ldr	r3, [r7, #8]
    3510:	625a      	str	r2, [r3, #36]	; 0x24
    3512:	e0e7      	b.n	36e4 <I2C_MasterTransferData+0x2d8>
    3514:	69fb      	ldr	r3, [r7, #28]
    3516:	781b      	ldrb	r3, [r3, #0]
    3518:	68f8      	ldr	r0, [r7, #12]
    351a:	4619      	mov	r1, r3
    351c:	f7ff fd96 	bl	304c <I2C_SendByte>
    3520:	4603      	mov	r3, r0
    3522:	617b      	str	r3, [r7, #20]
    3524:	697b      	ldr	r3, [r7, #20]
    3526:	2b28      	cmp	r3, #40	; 0x28
    3528:	d011      	beq.n	354e <I2C_MasterTransferData+0x142>
    352a:	68bb      	ldr	r3, [r7, #8]
    352c:	6a1b      	ldr	r3, [r3, #32]
    352e:	f103 0201 	add.w	r2, r3, #1
    3532:	68bb      	ldr	r3, [r7, #8]
    3534:	621a      	str	r2, [r3, #32]
    3536:	68bb      	ldr	r3, [r7, #8]
    3538:	6a1a      	ldr	r2, [r3, #32]
    353a:	68bb      	ldr	r3, [r7, #8]
    353c:	69db      	ldr	r3, [r3, #28]
    353e:	429a      	cmp	r2, r3
    3540:	d98a      	bls.n	3458 <I2C_MasterTransferData+0x4c>
    3542:	697b      	ldr	r3, [r7, #20]
    3544:	f443 7200 	orr.w	r2, r3, #512	; 0x200
    3548:	68bb      	ldr	r3, [r7, #8]
    354a:	625a      	str	r2, [r3, #36]	; 0x24
    354c:	e0ca      	b.n	36e4 <I2C_MasterTransferData+0x2d8>
    354e:	69fb      	ldr	r3, [r7, #28]
    3550:	f103 0301 	add.w	r3, r3, #1
    3554:	61fb      	str	r3, [r7, #28]
    3556:	68bb      	ldr	r3, [r7, #8]
    3558:	68db      	ldr	r3, [r3, #12]
    355a:	f103 0201 	add.w	r2, r3, #1
    355e:	68bb      	ldr	r3, [r7, #8]
    3560:	60da      	str	r2, [r3, #12]
    3562:	e000      	b.n	3566 <I2C_MasterTransferData+0x15a>
    3564:	bf00      	nop
    3566:	68bb      	ldr	r3, [r7, #8]
    3568:	68da      	ldr	r2, [r3, #12]
    356a:	68bb      	ldr	r3, [r7, #8]
    356c:	689b      	ldr	r3, [r3, #8]
    356e:	429a      	cmp	r2, r3
    3570:	d3d0      	bcc.n	3514 <I2C_MasterTransferData+0x108>
    3572:	68bb      	ldr	r3, [r7, #8]
    3574:	689b      	ldr	r3, [r3, #8]
    3576:	2b00      	cmp	r3, #0
    3578:	d027      	beq.n	35ca <I2C_MasterTransferData+0x1be>
    357a:	68bb      	ldr	r3, [r7, #8]
    357c:	685b      	ldr	r3, [r3, #4]
    357e:	2b00      	cmp	r3, #0
    3580:	d023      	beq.n	35ca <I2C_MasterTransferData+0x1be>
    3582:	68bb      	ldr	r3, [r7, #8]
    3584:	695b      	ldr	r3, [r3, #20]
    3586:	2b00      	cmp	r3, #0
    3588:	d01f      	beq.n	35ca <I2C_MasterTransferData+0x1be>
    358a:	68bb      	ldr	r3, [r7, #8]
    358c:	691b      	ldr	r3, [r3, #16]
    358e:	2b00      	cmp	r3, #0
    3590:	d01b      	beq.n	35ca <I2C_MasterTransferData+0x1be>
    3592:	68f8      	ldr	r0, [r7, #12]
    3594:	f7ff fd1a 	bl	2fcc <I2C_Start>
    3598:	4603      	mov	r3, r0
    359a:	617b      	str	r3, [r7, #20]
    359c:	697b      	ldr	r3, [r7, #20]
    359e:	2b08      	cmp	r3, #8
    35a0:	d013      	beq.n	35ca <I2C_MasterTransferData+0x1be>
    35a2:	697b      	ldr	r3, [r7, #20]
    35a4:	2b10      	cmp	r3, #16
    35a6:	d010      	beq.n	35ca <I2C_MasterTransferData+0x1be>
    35a8:	68bb      	ldr	r3, [r7, #8]
    35aa:	6a1b      	ldr	r3, [r3, #32]
    35ac:	f103 0201 	add.w	r2, r3, #1
    35b0:	68bb      	ldr	r3, [r7, #8]
    35b2:	621a      	str	r2, [r3, #32]
    35b4:	68bb      	ldr	r3, [r7, #8]
    35b6:	6a1a      	ldr	r2, [r3, #32]
    35b8:	68bb      	ldr	r3, [r7, #8]
    35ba:	69db      	ldr	r3, [r3, #28]
    35bc:	429a      	cmp	r2, r3
    35be:	f67f af4d 	bls.w	345c <I2C_MasterTransferData+0x50>
    35c2:	68bb      	ldr	r3, [r7, #8]
    35c4:	697a      	ldr	r2, [r7, #20]
    35c6:	625a      	str	r2, [r3, #36]	; 0x24
    35c8:	e08c      	b.n	36e4 <I2C_MasterTransferData+0x2d8>
    35ca:	68bb      	ldr	r3, [r7, #8]
    35cc:	695b      	ldr	r3, [r3, #20]
    35ce:	2b00      	cmp	r3, #0
    35d0:	f000 8082 	beq.w	36d8 <I2C_MasterTransferData+0x2cc>
    35d4:	68bb      	ldr	r3, [r7, #8]
    35d6:	691b      	ldr	r3, [r3, #16]
    35d8:	2b00      	cmp	r3, #0
    35da:	d07d      	beq.n	36d8 <I2C_MasterTransferData+0x2cc>
    35dc:	68bb      	ldr	r3, [r7, #8]
    35de:	681b      	ldr	r3, [r3, #0]
    35e0:	b2db      	uxtb	r3, r3
    35e2:	ea4f 0343 	mov.w	r3, r3, lsl #1
    35e6:	b2db      	uxtb	r3, r3
    35e8:	f043 0301 	orr.w	r3, r3, #1
    35ec:	b2db      	uxtb	r3, r3
    35ee:	68f8      	ldr	r0, [r7, #12]
    35f0:	4619      	mov	r1, r3
    35f2:	f7ff fd2b 	bl	304c <I2C_SendByte>
    35f6:	4603      	mov	r3, r0
    35f8:	617b      	str	r3, [r7, #20]
    35fa:	697b      	ldr	r3, [r7, #20]
    35fc:	2b40      	cmp	r3, #64	; 0x40
    35fe:	d064      	beq.n	36ca <I2C_MasterTransferData+0x2be>
    3600:	68bb      	ldr	r3, [r7, #8]
    3602:	6a1b      	ldr	r3, [r3, #32]
    3604:	f103 0201 	add.w	r2, r3, #1
    3608:	68bb      	ldr	r3, [r7, #8]
    360a:	621a      	str	r2, [r3, #32]
    360c:	68bb      	ldr	r3, [r7, #8]
    360e:	6a1a      	ldr	r2, [r3, #32]
    3610:	68bb      	ldr	r3, [r7, #8]
    3612:	69db      	ldr	r3, [r3, #28]
    3614:	429a      	cmp	r2, r3
    3616:	f67f af23 	bls.w	3460 <I2C_MasterTransferData+0x54>
    361a:	697b      	ldr	r3, [r7, #20]
    361c:	f443 7200 	orr.w	r2, r3, #512	; 0x200
    3620:	68bb      	ldr	r3, [r7, #8]
    3622:	625a      	str	r2, [r3, #36]	; 0x24
    3624:	e05e      	b.n	36e4 <I2C_MasterTransferData+0x2d8>
    3626:	68bb      	ldr	r3, [r7, #8]
    3628:	699a      	ldr	r2, [r3, #24]
    362a:	68bb      	ldr	r3, [r7, #8]
    362c:	695b      	ldr	r3, [r3, #20]
    362e:	f103 33ff 	add.w	r3, r3, #4294967295
    3632:	429a      	cmp	r2, r3
    3634:	d21d      	bcs.n	3672 <I2C_MasterTransferData+0x266>
    3636:	f107 0313 	add.w	r3, r7, #19
    363a:	68f8      	ldr	r0, [r7, #12]
    363c:	4619      	mov	r1, r3
    363e:	f04f 0201 	mov.w	r2, #1
    3642:	f7ff fd2b 	bl	309c <I2C_GetByte>
    3646:	4603      	mov	r3, r0
    3648:	617b      	str	r3, [r7, #20]
    364a:	697b      	ldr	r3, [r7, #20]
    364c:	2b50      	cmp	r3, #80	; 0x50
    364e:	d02e      	beq.n	36ae <I2C_MasterTransferData+0x2a2>
    3650:	68bb      	ldr	r3, [r7, #8]
    3652:	6a1b      	ldr	r3, [r3, #32]
    3654:	f103 0201 	add.w	r2, r3, #1
    3658:	68bb      	ldr	r3, [r7, #8]
    365a:	621a      	str	r2, [r3, #32]
    365c:	68bb      	ldr	r3, [r7, #8]
    365e:	6a1a      	ldr	r2, [r3, #32]
    3660:	68bb      	ldr	r3, [r7, #8]
    3662:	69db      	ldr	r3, [r3, #28]
    3664:	429a      	cmp	r2, r3
    3666:	f67f aefd 	bls.w	3464 <I2C_MasterTransferData+0x58>
    366a:	68bb      	ldr	r3, [r7, #8]
    366c:	697a      	ldr	r2, [r7, #20]
    366e:	625a      	str	r2, [r3, #36]	; 0x24
    3670:	e038      	b.n	36e4 <I2C_MasterTransferData+0x2d8>
    3672:	f107 0313 	add.w	r3, r7, #19
    3676:	68f8      	ldr	r0, [r7, #12]
    3678:	4619      	mov	r1, r3
    367a:	f04f 0200 	mov.w	r2, #0
    367e:	f7ff fd0d 	bl	309c <I2C_GetByte>
    3682:	4603      	mov	r3, r0
    3684:	617b      	str	r3, [r7, #20]
    3686:	697b      	ldr	r3, [r7, #20]
    3688:	2b58      	cmp	r3, #88	; 0x58
    368a:	d010      	beq.n	36ae <I2C_MasterTransferData+0x2a2>
    368c:	68bb      	ldr	r3, [r7, #8]
    368e:	6a1b      	ldr	r3, [r3, #32]
    3690:	f103 0201 	add.w	r2, r3, #1
    3694:	68bb      	ldr	r3, [r7, #8]
    3696:	621a      	str	r2, [r3, #32]
    3698:	68bb      	ldr	r3, [r7, #8]
    369a:	6a1a      	ldr	r2, [r3, #32]
    369c:	68bb      	ldr	r3, [r7, #8]
    369e:	69db      	ldr	r3, [r3, #28]
    36a0:	429a      	cmp	r2, r3
    36a2:	f67f aee1 	bls.w	3468 <I2C_MasterTransferData+0x5c>
    36a6:	68bb      	ldr	r3, [r7, #8]
    36a8:	697a      	ldr	r2, [r7, #20]
    36aa:	625a      	str	r2, [r3, #36]	; 0x24
    36ac:	e01a      	b.n	36e4 <I2C_MasterTransferData+0x2d8>
    36ae:	7cfa      	ldrb	r2, [r7, #19]
    36b0:	69bb      	ldr	r3, [r7, #24]
    36b2:	701a      	strb	r2, [r3, #0]
    36b4:	69bb      	ldr	r3, [r7, #24]
    36b6:	f103 0301 	add.w	r3, r3, #1
    36ba:	61bb      	str	r3, [r7, #24]
    36bc:	68bb      	ldr	r3, [r7, #8]
    36be:	699b      	ldr	r3, [r3, #24]
    36c0:	f103 0201 	add.w	r2, r3, #1
    36c4:	68bb      	ldr	r3, [r7, #8]
    36c6:	619a      	str	r2, [r3, #24]
    36c8:	e000      	b.n	36cc <I2C_MasterTransferData+0x2c0>
    36ca:	bf00      	nop
    36cc:	68bb      	ldr	r3, [r7, #8]
    36ce:	699a      	ldr	r2, [r3, #24]
    36d0:	68bb      	ldr	r3, [r7, #8]
    36d2:	695b      	ldr	r3, [r3, #20]
    36d4:	429a      	cmp	r2, r3
    36d6:	d3a6      	bcc.n	3626 <I2C_MasterTransferData+0x21a>
    36d8:	68f8      	ldr	r0, [r7, #12]
    36da:	f7ff fc9b 	bl	3014 <I2C_Stop>
    36de:	f04f 0301 	mov.w	r3, #1
    36e2:	e034      	b.n	374e <I2C_MasterTransferData+0x342>
    36e4:	68f8      	ldr	r0, [r7, #12]
    36e6:	f7ff fc95 	bl	3014 <I2C_Stop>
    36ea:	f04f 0300 	mov.w	r3, #0
    36ee:	e02e      	b.n	374e <I2C_MasterTransferData+0x342>
    36f0:	79fb      	ldrb	r3, [r7, #7]
    36f2:	2b01      	cmp	r3, #1
    36f4:	d129      	bne.n	374a <I2C_MasterTransferData+0x33e>
    36f6:	68f8      	ldr	r0, [r7, #12]
    36f8:	f7ff fc3e 	bl	2f78 <I2C_getNum>
    36fc:	4603      	mov	r3, r0
    36fe:	b2db      	uxtb	r3, r3
    3700:	74fb      	strb	r3, [r7, #19]
    3702:	7cfb      	ldrb	r3, [r7, #19]
    3704:	461a      	mov	r2, r3
    3706:	68b9      	ldr	r1, [r7, #8]
    3708:	f240 2388 	movw	r3, #648	; 0x288
    370c:	f2c1 0300 	movt	r3, #4096	; 0x1000
    3710:	f843 1032 	str.w	r1, [r3, r2, lsl #3]
    3714:	7cfb      	ldrb	r3, [r7, #19]
    3716:	f240 2288 	movw	r2, #648	; 0x288
    371a:	f2c1 0200 	movt	r2, #4096	; 0x1000
    371e:	ea4f 03c3 	mov.w	r3, r3, lsl #3
    3722:	18d3      	adds	r3, r2, r3
    3724:	f04f 0200 	mov.w	r2, #0
    3728:	605a      	str	r2, [r3, #4]
    372a:	68fb      	ldr	r3, [r7, #12]
    372c:	f04f 0208 	mov.w	r2, #8
    3730:	619a      	str	r2, [r3, #24]
    3732:	68fb      	ldr	r3, [r7, #12]
    3734:	f04f 0220 	mov.w	r2, #32
    3738:	601a      	str	r2, [r3, #0]
    373a:	68f8      	ldr	r0, [r7, #12]
    373c:	f04f 0101 	mov.w	r1, #1
    3740:	f7ff fe10 	bl	3364 <I2C_IntCmd>
    3744:	f04f 0301 	mov.w	r3, #1
    3748:	e001      	b.n	374e <I2C_MasterTransferData+0x342>
    374a:	f04f 0300 	mov.w	r3, #0
    374e:	4618      	mov	r0, r3
    3750:	f107 0720 	add.w	r7, r7, #32
    3754:	46bd      	mov	sp, r7
    3756:	bd80      	pop	{r7, pc}

00003758 <set_PinFunc>:
    3758:	b480      	push	{r7}
    375a:	b087      	sub	sp, #28
    375c:	af00      	add	r7, sp, #0
    375e:	4613      	mov	r3, r2
    3760:	4602      	mov	r2, r0
    3762:	71fa      	strb	r2, [r7, #7]
    3764:	460a      	mov	r2, r1
    3766:	71ba      	strb	r2, [r7, #6]
    3768:	717b      	strb	r3, [r7, #5]
    376a:	79bb      	ldrb	r3, [r7, #6]
    376c:	617b      	str	r3, [r7, #20]
    376e:	79fb      	ldrb	r3, [r7, #7]
    3770:	ea4f 0343 	mov.w	r3, r3, lsl #1
    3774:	613b      	str	r3, [r7, #16]
    3776:	f44f 4340 	mov.w	r3, #49152	; 0xc000
    377a:	f2c4 0302 	movt	r3, #16386	; 0x4002
    377e:	60fb      	str	r3, [r7, #12]
    3780:	697b      	ldr	r3, [r7, #20]
    3782:	2b0f      	cmp	r3, #15
    3784:	d907      	bls.n	3796 <set_PinFunc+0x3e>
    3786:	697b      	ldr	r3, [r7, #20]
    3788:	f1a3 0310 	sub.w	r3, r3, #16
    378c:	617b      	str	r3, [r7, #20]
    378e:	693b      	ldr	r3, [r7, #16]
    3790:	f103 0301 	add.w	r3, r3, #1
    3794:	613b      	str	r3, [r7, #16]
    3796:	693b      	ldr	r3, [r7, #16]
    3798:	ea4f 0383 	mov.w	r3, r3, lsl #2
    379c:	68fa      	ldr	r2, [r7, #12]
    379e:	18d3      	adds	r3, r2, r3
    37a0:	693a      	ldr	r2, [r7, #16]
    37a2:	ea4f 0282 	mov.w	r2, r2, lsl #2
    37a6:	68f9      	ldr	r1, [r7, #12]
    37a8:	188a      	adds	r2, r1, r2
    37aa:	6811      	ldr	r1, [r2, #0]
    37ac:	697a      	ldr	r2, [r7, #20]
    37ae:	ea4f 0242 	mov.w	r2, r2, lsl #1
    37b2:	f04f 0003 	mov.w	r0, #3
    37b6:	fa00 f202 	lsl.w	r2, r0, r2
    37ba:	ea6f 0202 	mvn.w	r2, r2
    37be:	400a      	ands	r2, r1
    37c0:	601a      	str	r2, [r3, #0]
    37c2:	693b      	ldr	r3, [r7, #16]
    37c4:	ea4f 0383 	mov.w	r3, r3, lsl #2
    37c8:	68fa      	ldr	r2, [r7, #12]
    37ca:	18d3      	adds	r3, r2, r3
    37cc:	693a      	ldr	r2, [r7, #16]
    37ce:	ea4f 0282 	mov.w	r2, r2, lsl #2
    37d2:	68f9      	ldr	r1, [r7, #12]
    37d4:	188a      	adds	r2, r1, r2
    37d6:	6811      	ldr	r1, [r2, #0]
    37d8:	7978      	ldrb	r0, [r7, #5]
    37da:	697a      	ldr	r2, [r7, #20]
    37dc:	ea4f 0242 	mov.w	r2, r2, lsl #1
    37e0:	fa00 f202 	lsl.w	r2, r0, r2
    37e4:	430a      	orrs	r2, r1
    37e6:	601a      	str	r2, [r3, #0]
    37e8:	f107 071c 	add.w	r7, r7, #28
    37ec:	46bd      	mov	sp, r7
    37ee:	bc80      	pop	{r7}
    37f0:	4770      	bx	lr
    37f2:	bf00      	nop

000037f4 <set_ResistorMode>:
    37f4:	b480      	push	{r7}
    37f6:	b087      	sub	sp, #28
    37f8:	af00      	add	r7, sp, #0
    37fa:	4613      	mov	r3, r2
    37fc:	4602      	mov	r2, r0
    37fe:	71fa      	strb	r2, [r7, #7]
    3800:	460a      	mov	r2, r1
    3802:	71ba      	strb	r2, [r7, #6]
    3804:	717b      	strb	r3, [r7, #5]
    3806:	79bb      	ldrb	r3, [r7, #6]
    3808:	617b      	str	r3, [r7, #20]
    380a:	79fb      	ldrb	r3, [r7, #7]
    380c:	ea4f 0343 	mov.w	r3, r3, lsl #1
    3810:	613b      	str	r3, [r7, #16]
    3812:	f24c 0340 	movw	r3, #49216	; 0xc040
    3816:	f2c4 0302 	movt	r3, #16386	; 0x4002
    381a:	60fb      	str	r3, [r7, #12]
    381c:	697b      	ldr	r3, [r7, #20]
    381e:	2b0f      	cmp	r3, #15
    3820:	d907      	bls.n	3832 <set_ResistorMode+0x3e>
    3822:	697b      	ldr	r3, [r7, #20]
    3824:	f1a3 0310 	sub.w	r3, r3, #16
    3828:	617b      	str	r3, [r7, #20]
    382a:	693b      	ldr	r3, [r7, #16]
    382c:	f103 0301 	add.w	r3, r3, #1
    3830:	613b      	str	r3, [r7, #16]
    3832:	693b      	ldr	r3, [r7, #16]
    3834:	ea4f 0383 	mov.w	r3, r3, lsl #2
    3838:	68fa      	ldr	r2, [r7, #12]
    383a:	18d3      	adds	r3, r2, r3
    383c:	693a      	ldr	r2, [r7, #16]
    383e:	ea4f 0282 	mov.w	r2, r2, lsl #2
    3842:	68f9      	ldr	r1, [r7, #12]
    3844:	188a      	adds	r2, r1, r2
    3846:	6811      	ldr	r1, [r2, #0]
    3848:	697a      	ldr	r2, [r7, #20]
    384a:	ea4f 0242 	mov.w	r2, r2, lsl #1
    384e:	f04f 0003 	mov.w	r0, #3
    3852:	fa00 f202 	lsl.w	r2, r0, r2
    3856:	ea6f 0202 	mvn.w	r2, r2
    385a:	400a      	ands	r2, r1
    385c:	601a      	str	r2, [r3, #0]
    385e:	693b      	ldr	r3, [r7, #16]
    3860:	ea4f 0383 	mov.w	r3, r3, lsl #2
    3864:	68fa      	ldr	r2, [r7, #12]
    3866:	18d3      	adds	r3, r2, r3
    3868:	693a      	ldr	r2, [r7, #16]
    386a:	ea4f 0282 	mov.w	r2, r2, lsl #2
    386e:	68f9      	ldr	r1, [r7, #12]
    3870:	188a      	adds	r2, r1, r2
    3872:	6811      	ldr	r1, [r2, #0]
    3874:	7978      	ldrb	r0, [r7, #5]
    3876:	697a      	ldr	r2, [r7, #20]
    3878:	ea4f 0242 	mov.w	r2, r2, lsl #1
    387c:	fa00 f202 	lsl.w	r2, r0, r2
    3880:	430a      	orrs	r2, r1
    3882:	601a      	str	r2, [r3, #0]
    3884:	f107 071c 	add.w	r7, r7, #28
    3888:	46bd      	mov	sp, r7
    388a:	bc80      	pop	{r7}
    388c:	4770      	bx	lr
    388e:	bf00      	nop

00003890 <set_OpenDrainMode>:
    3890:	b480      	push	{r7}
    3892:	b085      	sub	sp, #20
    3894:	af00      	add	r7, sp, #0
    3896:	4613      	mov	r3, r2
    3898:	4602      	mov	r2, r0
    389a:	71fa      	strb	r2, [r7, #7]
    389c:	460a      	mov	r2, r1
    389e:	71ba      	strb	r2, [r7, #6]
    38a0:	717b      	strb	r3, [r7, #5]
    38a2:	f24c 0368 	movw	r3, #49256	; 0xc068
    38a6:	f2c4 0302 	movt	r3, #16386	; 0x4002
    38aa:	60fb      	str	r3, [r7, #12]
    38ac:	797b      	ldrb	r3, [r7, #5]
    38ae:	2b01      	cmp	r3, #1
    38b0:	d112      	bne.n	38d8 <set_OpenDrainMode+0x48>
    38b2:	79fb      	ldrb	r3, [r7, #7]
    38b4:	ea4f 0383 	mov.w	r3, r3, lsl #2
    38b8:	68fa      	ldr	r2, [r7, #12]
    38ba:	18d3      	adds	r3, r2, r3
    38bc:	79fa      	ldrb	r2, [r7, #7]
    38be:	ea4f 0282 	mov.w	r2, r2, lsl #2
    38c2:	68f9      	ldr	r1, [r7, #12]
    38c4:	188a      	adds	r2, r1, r2
    38c6:	6811      	ldr	r1, [r2, #0]
    38c8:	79ba      	ldrb	r2, [r7, #6]
    38ca:	f04f 0001 	mov.w	r0, #1
    38ce:	fa00 f202 	lsl.w	r2, r0, r2
    38d2:	430a      	orrs	r2, r1
    38d4:	601a      	str	r2, [r3, #0]
    38d6:	e013      	b.n	3900 <set_OpenDrainMode+0x70>
    38d8:	79fb      	ldrb	r3, [r7, #7]
    38da:	ea4f 0383 	mov.w	r3, r3, lsl #2
    38de:	68fa      	ldr	r2, [r7, #12]
    38e0:	18d3      	adds	r3, r2, r3
    38e2:	79fa      	ldrb	r2, [r7, #7]
    38e4:	ea4f 0282 	mov.w	r2, r2, lsl #2
    38e8:	68f9      	ldr	r1, [r7, #12]
    38ea:	188a      	adds	r2, r1, r2
    38ec:	6811      	ldr	r1, [r2, #0]
    38ee:	79ba      	ldrb	r2, [r7, #6]
    38f0:	f04f 0001 	mov.w	r0, #1
    38f4:	fa00 f202 	lsl.w	r2, r0, r2
    38f8:	ea6f 0202 	mvn.w	r2, r2
    38fc:	400a      	ands	r2, r1
    38fe:	601a      	str	r2, [r3, #0]
    3900:	f107 0714 	add.w	r7, r7, #20
    3904:	46bd      	mov	sp, r7
    3906:	bc80      	pop	{r7}
    3908:	4770      	bx	lr
    390a:	bf00      	nop

0000390c <PINSEL_SetI2C0Pins>:
    390c:	b480      	push	{r7}
    390e:	b085      	sub	sp, #20
    3910:	af00      	add	r7, sp, #0
    3912:	4602      	mov	r2, r0
    3914:	460b      	mov	r3, r1
    3916:	71fa      	strb	r2, [r7, #7]
    3918:	71bb      	strb	r3, [r7, #6]
    391a:	79fb      	ldrb	r3, [r7, #7]
    391c:	2b01      	cmp	r3, #1
    391e:	d102      	bne.n	3926 <PINSEL_SetI2C0Pins+0x1a>
    3920:	f04f 0305 	mov.w	r3, #5
    3924:	60fb      	str	r3, [r7, #12]
    3926:	79bb      	ldrb	r3, [r7, #6]
    3928:	2b00      	cmp	r3, #0
    392a:	d102      	bne.n	3932 <PINSEL_SetI2C0Pins+0x26>
    392c:	f04f 030a 	mov.w	r3, #10
    3930:	60fb      	str	r3, [r7, #12]
    3932:	f44f 4340 	mov.w	r3, #49152	; 0xc000
    3936:	f2c4 0302 	movt	r3, #16386	; 0x4002
    393a:	68fa      	ldr	r2, [r7, #12]
    393c:	67da      	str	r2, [r3, #124]	; 0x7c
    393e:	f107 0714 	add.w	r7, r7, #20
    3942:	46bd      	mov	sp, r7
    3944:	bc80      	pop	{r7}
    3946:	4770      	bx	lr

00003948 <PINSEL_ConfigPin>:
    3948:	b580      	push	{r7, lr}
    394a:	b082      	sub	sp, #8
    394c:	af00      	add	r7, sp, #0
    394e:	6078      	str	r0, [r7, #4]
    3950:	687b      	ldr	r3, [r7, #4]
    3952:	7819      	ldrb	r1, [r3, #0]
    3954:	687b      	ldr	r3, [r7, #4]
    3956:	785a      	ldrb	r2, [r3, #1]
    3958:	687b      	ldr	r3, [r7, #4]
    395a:	789b      	ldrb	r3, [r3, #2]
    395c:	4608      	mov	r0, r1
    395e:	4611      	mov	r1, r2
    3960:	461a      	mov	r2, r3
    3962:	f7ff fef9 	bl	3758 <set_PinFunc>
    3966:	687b      	ldr	r3, [r7, #4]
    3968:	7819      	ldrb	r1, [r3, #0]
    396a:	687b      	ldr	r3, [r7, #4]
    396c:	785a      	ldrb	r2, [r3, #1]
    396e:	687b      	ldr	r3, [r7, #4]
    3970:	78db      	ldrb	r3, [r3, #3]
    3972:	4608      	mov	r0, r1
    3974:	4611      	mov	r1, r2
    3976:	461a      	mov	r2, r3
    3978:	f7ff ff3c 	bl	37f4 <set_ResistorMode>
    397c:	687b      	ldr	r3, [r7, #4]
    397e:	7819      	ldrb	r1, [r3, #0]
    3980:	687b      	ldr	r3, [r7, #4]
    3982:	785a      	ldrb	r2, [r3, #1]
    3984:	687b      	ldr	r3, [r7, #4]
    3986:	791b      	ldrb	r3, [r3, #4]
    3988:	4608      	mov	r0, r1
    398a:	4611      	mov	r1, r2
    398c:	461a      	mov	r2, r3
    398e:	f7ff ff7f 	bl	3890 <set_OpenDrainMode>
    3992:	f107 0708 	add.w	r7, r7, #8
    3996:	46bd      	mov	sp, r7
    3998:	bd80      	pop	{r7, pc}
    399a:	bf00      	nop

0000399c <getPClock>:
    399c:	b580      	push	{r7, lr}
    399e:	b084      	sub	sp, #16
    39a0:	af00      	add	r7, sp, #0
    39a2:	6078      	str	r0, [r7, #4]
    39a4:	687b      	ldr	r3, [r7, #4]
    39a6:	2b03      	cmp	r3, #3
    39a8:	d826      	bhi.n	39f8 <getPClock+0x5c>
    39aa:	a201      	add	r2, pc, #4	; (adr r2, 39b0 <getPClock+0x14>)
    39ac:	f852 f023 	ldr.w	pc, [r2, r3, lsl #2]
    39b0:	000039c1 	.word	0x000039c1
    39b4:	000039cf 	.word	0x000039cf
    39b8:	000039dd 	.word	0x000039dd
    39bc:	000039eb 	.word	0x000039eb
    39c0:	f04f 0002 	mov.w	r0, #2
    39c4:	f7ff fa28 	bl	2e18 <CLKPWR_GetPCLK>
    39c8:	4603      	mov	r3, r0
    39ca:	60fb      	str	r3, [r7, #12]
    39cc:	e014      	b.n	39f8 <getPClock+0x5c>
    39ce:	f04f 0004 	mov.w	r0, #4
    39d2:	f7ff fa21 	bl	2e18 <CLKPWR_GetPCLK>
    39d6:	4603      	mov	r3, r0
    39d8:	60fb      	str	r3, [r7, #12]
    39da:	e00d      	b.n	39f8 <getPClock+0x5c>
    39dc:	f04f 002c 	mov.w	r0, #44	; 0x2c
    39e0:	f7ff fa1a 	bl	2e18 <CLKPWR_GetPCLK>
    39e4:	4603      	mov	r3, r0
    39e6:	60fb      	str	r3, [r7, #12]
    39e8:	e006      	b.n	39f8 <getPClock+0x5c>
    39ea:	f04f 002e 	mov.w	r0, #46	; 0x2e
    39ee:	f7ff fa13 	bl	2e18 <CLKPWR_GetPCLK>
    39f2:	4603      	mov	r3, r0
    39f4:	60fb      	str	r3, [r7, #12]
    39f6:	bf00      	nop
    39f8:	68fb      	ldr	r3, [r7, #12]
    39fa:	4618      	mov	r0, r3
    39fc:	f107 0710 	add.w	r7, r7, #16
    3a00:	46bd      	mov	sp, r7
    3a02:	bd80      	pop	{r7, pc}

00003a04 <converUSecToVal>:
    3a04:	b580      	push	{r7, lr}
    3a06:	b084      	sub	sp, #16
    3a08:	af00      	add	r7, sp, #0
    3a0a:	6078      	str	r0, [r7, #4]
    3a0c:	6039      	str	r1, [r7, #0]
    3a0e:	6878      	ldr	r0, [r7, #4]
    3a10:	f7ff ffc4 	bl	399c <getPClock>
    3a14:	4601      	mov	r1, r0
    3a16:	460a      	mov	r2, r1
    3a18:	f04f 0300 	mov.w	r3, #0
    3a1c:	e9c7 2302 	strd	r2, r3, [r7, #8]
    3a20:	6839      	ldr	r1, [r7, #0]
    3a22:	460a      	mov	r2, r1
    3a24:	f04f 0300 	mov.w	r3, #0
    3a28:	68b9      	ldr	r1, [r7, #8]
    3a2a:	fb03 f001 	mul.w	r0, r3, r1
    3a2e:	68f9      	ldr	r1, [r7, #12]
    3a30:	fb02 f101 	mul.w	r1, r2, r1
    3a34:	1841      	adds	r1, r0, r1
    3a36:	68b8      	ldr	r0, [r7, #8]
    3a38:	fba0 2302 	umull	r2, r3, r0, r2
    3a3c:	18c9      	adds	r1, r1, r3
    3a3e:	460b      	mov	r3, r1
    3a40:	4610      	mov	r0, r2
    3a42:	4619      	mov	r1, r3
    3a44:	f44f 2274 	mov.w	r2, #999424	; 0xf4000
    3a48:	f502 7210 	add.w	r2, r2, #576	; 0x240
    3a4c:	f04f 0300 	mov.w	r3, #0
    3a50:	f000 fde0 	bl	4614 <__aeabi_uldivmod>
    3a54:	4602      	mov	r2, r0
    3a56:	460b      	mov	r3, r1
    3a58:	e9c7 2302 	strd	r2, r3, [r7, #8]
    3a5c:	68bb      	ldr	r3, [r7, #8]
    3a5e:	4618      	mov	r0, r3
    3a60:	f107 0710 	add.w	r7, r7, #16
    3a64:	46bd      	mov	sp, r7
    3a66:	bd80      	pop	{r7, pc}

00003a68 <converPtrToTimeNum>:
    3a68:	b480      	push	{r7}
    3a6a:	b085      	sub	sp, #20
    3a6c:	af00      	add	r7, sp, #0
    3a6e:	6078      	str	r0, [r7, #4]
    3a70:	f04f 33ff 	mov.w	r3, #4294967295
    3a74:	60fb      	str	r3, [r7, #12]
    3a76:	687b      	ldr	r3, [r7, #4]
    3a78:	f1b3 2f40 	cmp.w	r3, #1073758208	; 0x40004000
    3a7c:	d103      	bne.n	3a86 <converPtrToTimeNum+0x1e>
    3a7e:	f04f 0300 	mov.w	r3, #0
    3a82:	60fb      	str	r3, [r7, #12]
    3a84:	e01f      	b.n	3ac6 <converPtrToTimeNum+0x5e>
    3a86:	687a      	ldr	r2, [r7, #4]
    3a88:	f44f 4300 	mov.w	r3, #32768	; 0x8000
    3a8c:	f2c4 0300 	movt	r3, #16384	; 0x4000
    3a90:	429a      	cmp	r2, r3
    3a92:	d103      	bne.n	3a9c <converPtrToTimeNum+0x34>
    3a94:	f04f 0301 	mov.w	r3, #1
    3a98:	60fb      	str	r3, [r7, #12]
    3a9a:	e014      	b.n	3ac6 <converPtrToTimeNum+0x5e>
    3a9c:	687a      	ldr	r2, [r7, #4]
    3a9e:	f04f 0300 	mov.w	r3, #0
    3aa2:	f2c4 0309 	movt	r3, #16393	; 0x4009
    3aa6:	429a      	cmp	r2, r3
    3aa8:	d103      	bne.n	3ab2 <converPtrToTimeNum+0x4a>
    3aaa:	f04f 0302 	mov.w	r3, #2
    3aae:	60fb      	str	r3, [r7, #12]
    3ab0:	e009      	b.n	3ac6 <converPtrToTimeNum+0x5e>
    3ab2:	687a      	ldr	r2, [r7, #4]
    3ab4:	f44f 4380 	mov.w	r3, #16384	; 0x4000
    3ab8:	f2c4 0309 	movt	r3, #16393	; 0x4009
    3abc:	429a      	cmp	r2, r3
    3abe:	d102      	bne.n	3ac6 <converPtrToTimeNum+0x5e>
    3ac0:	f04f 0303 	mov.w	r3, #3
    3ac4:	60fb      	str	r3, [r7, #12]
    3ac6:	68fb      	ldr	r3, [r7, #12]
    3ac8:	4618      	mov	r0, r3
    3aca:	f107 0714 	add.w	r7, r7, #20
    3ace:	46bd      	mov	sp, r7
    3ad0:	bc80      	pop	{r7}
    3ad2:	4770      	bx	lr

00003ad4 <TIM_Init>:
    3ad4:	b580      	push	{r7, lr}
    3ad6:	b086      	sub	sp, #24
    3ad8:	af00      	add	r7, sp, #0
    3ada:	60f8      	str	r0, [r7, #12]
    3adc:	460b      	mov	r3, r1
    3ade:	607a      	str	r2, [r7, #4]
    3ae0:	72fb      	strb	r3, [r7, #11]
    3ae2:	68fb      	ldr	r3, [r7, #12]
    3ae4:	f1b3 2f40 	cmp.w	r3, #1073758208	; 0x40004000
    3ae8:	d10c      	bne.n	3b04 <TIM_Init+0x30>
    3aea:	f04f 0002 	mov.w	r0, #2
    3aee:	f04f 0101 	mov.w	r1, #1
    3af2:	f7ff f9cb 	bl	2e8c <CLKPWR_ConfigPPWR>
    3af6:	f04f 0002 	mov.w	r0, #2
    3afa:	f04f 0100 	mov.w	r1, #0
    3afe:	f7ff f8fb 	bl	2cf8 <CLKPWR_SetPCLKDiv>
    3b02:	e03a      	b.n	3b7a <TIM_Init+0xa6>
    3b04:	68fa      	ldr	r2, [r7, #12]
    3b06:	f44f 4300 	mov.w	r3, #32768	; 0x8000
    3b0a:	f2c4 0300 	movt	r3, #16384	; 0x4000
    3b0e:	429a      	cmp	r2, r3
    3b10:	d10c      	bne.n	3b2c <TIM_Init+0x58>
    3b12:	f04f 0004 	mov.w	r0, #4
    3b16:	f04f 0101 	mov.w	r1, #1
    3b1a:	f7ff f9b7 	bl	2e8c <CLKPWR_ConfigPPWR>
    3b1e:	f04f 0004 	mov.w	r0, #4
    3b22:	f04f 0100 	mov.w	r1, #0
    3b26:	f7ff f8e7 	bl	2cf8 <CLKPWR_SetPCLKDiv>
    3b2a:	e026      	b.n	3b7a <TIM_Init+0xa6>
    3b2c:	68fa      	ldr	r2, [r7, #12]
    3b2e:	f04f 0300 	mov.w	r3, #0
    3b32:	f2c4 0309 	movt	r3, #16393	; 0x4009
    3b36:	429a      	cmp	r2, r3
    3b38:	d10c      	bne.n	3b54 <TIM_Init+0x80>
    3b3a:	f44f 0080 	mov.w	r0, #4194304	; 0x400000
    3b3e:	f04f 0101 	mov.w	r1, #1
    3b42:	f7ff f9a3 	bl	2e8c <CLKPWR_ConfigPPWR>
    3b46:	f04f 002c 	mov.w	r0, #44	; 0x2c
    3b4a:	f04f 0100 	mov.w	r1, #0
    3b4e:	f7ff f8d3 	bl	2cf8 <CLKPWR_SetPCLKDiv>
    3b52:	e012      	b.n	3b7a <TIM_Init+0xa6>
    3b54:	68fa      	ldr	r2, [r7, #12]
    3b56:	f44f 4380 	mov.w	r3, #16384	; 0x4000
    3b5a:	f2c4 0309 	movt	r3, #16393	; 0x4009
    3b5e:	429a      	cmp	r2, r3
    3b60:	d10b      	bne.n	3b7a <TIM_Init+0xa6>
    3b62:	f44f 0000 	mov.w	r0, #8388608	; 0x800000
    3b66:	f04f 0101 	mov.w	r1, #1
    3b6a:	f7ff f98f 	bl	2e8c <CLKPWR_ConfigPPWR>
    3b6e:	f04f 002e 	mov.w	r0, #46	; 0x2e
    3b72:	f04f 0100 	mov.w	r1, #0
    3b76:	f7ff f8bf 	bl	2cf8 <CLKPWR_SetPCLKDiv>
    3b7a:	68fb      	ldr	r3, [r7, #12]
    3b7c:	6a9b      	ldr	r3, [r3, #40]	; 0x28
    3b7e:	f023 0203 	bic.w	r2, r3, #3
    3b82:	68fb      	ldr	r3, [r7, #12]
    3b84:	629a      	str	r2, [r3, #40]	; 0x28
    3b86:	68fb      	ldr	r3, [r7, #12]
    3b88:	6a9b      	ldr	r3, [r3, #40]	; 0x28
    3b8a:	461a      	mov	r2, r3
    3b8c:	68fb      	ldr	r3, [r7, #12]
    3b8e:	629a      	str	r2, [r3, #40]	; 0x28
    3b90:	68fb      	ldr	r3, [r7, #12]
    3b92:	f04f 0200 	mov.w	r2, #0
    3b96:	609a      	str	r2, [r3, #8]
    3b98:	68fb      	ldr	r3, [r7, #12]
    3b9a:	f04f 0200 	mov.w	r2, #0
    3b9e:	611a      	str	r2, [r3, #16]
    3ba0:	68fb      	ldr	r3, [r7, #12]
    3ba2:	f04f 0200 	mov.w	r2, #0
    3ba6:	60da      	str	r2, [r3, #12]
    3ba8:	68fb      	ldr	r3, [r7, #12]
    3baa:	685b      	ldr	r3, [r3, #4]
    3bac:	f043 0202 	orr.w	r2, r3, #2
    3bb0:	68fb      	ldr	r3, [r7, #12]
    3bb2:	605a      	str	r2, [r3, #4]
    3bb4:	68fb      	ldr	r3, [r7, #12]
    3bb6:	685b      	ldr	r3, [r3, #4]
    3bb8:	f023 0202 	bic.w	r2, r3, #2
    3bbc:	68fb      	ldr	r3, [r7, #12]
    3bbe:	605a      	str	r2, [r3, #4]
    3bc0:	7afb      	ldrb	r3, [r7, #11]
    3bc2:	2b00      	cmp	r3, #0
    3bc4:	d11c      	bne.n	3c00 <TIM_Init+0x12c>
    3bc6:	687b      	ldr	r3, [r7, #4]
    3bc8:	617b      	str	r3, [r7, #20]
    3bca:	697b      	ldr	r3, [r7, #20]
    3bcc:	781b      	ldrb	r3, [r3, #0]
    3bce:	2b00      	cmp	r3, #0
    3bd0:	d106      	bne.n	3be0 <TIM_Init+0x10c>
    3bd2:	697b      	ldr	r3, [r7, #20]
    3bd4:	685b      	ldr	r3, [r3, #4]
    3bd6:	f103 32ff 	add.w	r2, r3, #4294967295
    3bda:	68fb      	ldr	r3, [r7, #12]
    3bdc:	60da      	str	r2, [r3, #12]
    3bde:	e021      	b.n	3c24 <TIM_Init+0x150>
    3be0:	68f8      	ldr	r0, [r7, #12]
    3be2:	f7ff ff41 	bl	3a68 <converPtrToTimeNum>
    3be6:	4602      	mov	r2, r0
    3be8:	697b      	ldr	r3, [r7, #20]
    3bea:	685b      	ldr	r3, [r3, #4]
    3bec:	4610      	mov	r0, r2
    3bee:	4619      	mov	r1, r3
    3bf0:	f7ff ff08 	bl	3a04 <converUSecToVal>
    3bf4:	4603      	mov	r3, r0
    3bf6:	f103 32ff 	add.w	r2, r3, #4294967295
    3bfa:	68fb      	ldr	r3, [r7, #12]
    3bfc:	60da      	str	r2, [r3, #12]
    3bfe:	e011      	b.n	3c24 <TIM_Init+0x150>
    3c00:	687b      	ldr	r3, [r7, #4]
    3c02:	613b      	str	r3, [r7, #16]
    3c04:	68fb      	ldr	r3, [r7, #12]
    3c06:	6a9b      	ldr	r3, [r3, #40]	; 0x28
    3c08:	f023 020c 	bic.w	r2, r3, #12
    3c0c:	68fb      	ldr	r3, [r7, #12]
    3c0e:	629a      	str	r2, [r3, #40]	; 0x28
    3c10:	693b      	ldr	r3, [r7, #16]
    3c12:	785b      	ldrb	r3, [r3, #1]
    3c14:	2b01      	cmp	r3, #1
    3c16:	d105      	bne.n	3c24 <TIM_Init+0x150>
    3c18:	68fb      	ldr	r3, [r7, #12]
    3c1a:	6a9b      	ldr	r3, [r3, #40]	; 0x28
    3c1c:	f043 0204 	orr.w	r2, r3, #4
    3c20:	68fb      	ldr	r3, [r7, #12]
    3c22:	629a      	str	r2, [r3, #40]	; 0x28
    3c24:	68fb      	ldr	r3, [r7, #12]
    3c26:	f04f 32ff 	mov.w	r2, #4294967295
    3c2a:	601a      	str	r2, [r3, #0]
    3c2c:	f107 0718 	add.w	r7, r7, #24
    3c30:	46bd      	mov	sp, r7
    3c32:	bd80      	pop	{r7, pc}

00003c34 <TIM_Cmd>:
    3c34:	b480      	push	{r7}
    3c36:	b083      	sub	sp, #12
    3c38:	af00      	add	r7, sp, #0
    3c3a:	6078      	str	r0, [r7, #4]
    3c3c:	460b      	mov	r3, r1
    3c3e:	70fb      	strb	r3, [r7, #3]
    3c40:	78fb      	ldrb	r3, [r7, #3]
    3c42:	2b01      	cmp	r3, #1
    3c44:	d106      	bne.n	3c54 <TIM_Cmd+0x20>
    3c46:	687b      	ldr	r3, [r7, #4]
    3c48:	685b      	ldr	r3, [r3, #4]
    3c4a:	f043 0201 	orr.w	r2, r3, #1
    3c4e:	687b      	ldr	r3, [r7, #4]
    3c50:	605a      	str	r2, [r3, #4]
    3c52:	e005      	b.n	3c60 <TIM_Cmd+0x2c>
    3c54:	687b      	ldr	r3, [r7, #4]
    3c56:	685b      	ldr	r3, [r3, #4]
    3c58:	f023 0201 	bic.w	r2, r3, #1
    3c5c:	687b      	ldr	r3, [r7, #4]
    3c5e:	605a      	str	r2, [r3, #4]
    3c60:	f107 070c 	add.w	r7, r7, #12
    3c64:	46bd      	mov	sp, r7
    3c66:	bc80      	pop	{r7}
    3c68:	4770      	bx	lr
    3c6a:	bf00      	nop

00003c6c <uart_set_divisors>:
    3c6c:	e92d 4fb0 	stmdb	sp!, {r4, r5, r7, r8, r9, sl, fp, lr}
    3c70:	b096      	sub	sp, #88	; 0x58
    3c72:	af00      	add	r7, sp, #0
    3c74:	6178      	str	r0, [r7, #20]
    3c76:	6139      	str	r1, [r7, #16]
    3c78:	f04f 0300 	mov.w	r3, #0
    3c7c:	f887 3057 	strb.w	r3, [r7, #87]	; 0x57
    3c80:	697a      	ldr	r2, [r7, #20]
    3c82:	f44f 4340 	mov.w	r3, #49152	; 0xc000
    3c86:	f2c4 0300 	movt	r3, #16384	; 0x4000
    3c8a:	429a      	cmp	r2, r3
    3c8c:	d106      	bne.n	3c9c <uart_set_divisors+0x30>
    3c8e:	f04f 0006 	mov.w	r0, #6
    3c92:	f7ff f8c1 	bl	2e18 <CLKPWR_GetPCLK>
    3c96:	4603      	mov	r3, r0
    3c98:	653b      	str	r3, [r7, #80]	; 0x50
    3c9a:	e028      	b.n	3cee <uart_set_divisors+0x82>
    3c9c:	697a      	ldr	r2, [r7, #20]
    3c9e:	f04f 0300 	mov.w	r3, #0
    3ca2:	f2c4 0301 	movt	r3, #16385	; 0x4001
    3ca6:	429a      	cmp	r2, r3
    3ca8:	d106      	bne.n	3cb8 <uart_set_divisors+0x4c>
    3caa:	f04f 0008 	mov.w	r0, #8
    3cae:	f7ff f8b3 	bl	2e18 <CLKPWR_GetPCLK>
    3cb2:	4603      	mov	r3, r0
    3cb4:	653b      	str	r3, [r7, #80]	; 0x50
    3cb6:	e01a      	b.n	3cee <uart_set_divisors+0x82>
    3cb8:	697a      	ldr	r2, [r7, #20]
    3cba:	f44f 4300 	mov.w	r3, #32768	; 0x8000
    3cbe:	f2c4 0309 	movt	r3, #16393	; 0x4009
    3cc2:	429a      	cmp	r2, r3
    3cc4:	d106      	bne.n	3cd4 <uart_set_divisors+0x68>
    3cc6:	f04f 0030 	mov.w	r0, #48	; 0x30
    3cca:	f7ff f8a5 	bl	2e18 <CLKPWR_GetPCLK>
    3cce:	4603      	mov	r3, r0
    3cd0:	653b      	str	r3, [r7, #80]	; 0x50
    3cd2:	e00c      	b.n	3cee <uart_set_divisors+0x82>
    3cd4:	697a      	ldr	r2, [r7, #20]
    3cd6:	f44f 4340 	mov.w	r3, #49152	; 0xc000
    3cda:	f2c4 0309 	movt	r3, #16393	; 0x4009
    3cde:	429a      	cmp	r2, r3
    3ce0:	d105      	bne.n	3cee <uart_set_divisors+0x82>
    3ce2:	f04f 0032 	mov.w	r0, #50	; 0x32
    3ce6:	f7ff f897 	bl	2e18 <CLKPWR_GetPCLK>
    3cea:	4603      	mov	r3, r0
    3cec:	653b      	str	r3, [r7, #80]	; 0x50
    3cee:	f04f 33ff 	mov.w	r3, #4294967295
    3cf2:	62bb      	str	r3, [r7, #40]	; 0x28
    3cf4:	f04f 0300 	mov.w	r3, #0
    3cf8:	647b      	str	r3, [r7, #68]	; 0x44
    3cfa:	f04f 0300 	mov.w	r3, #0
    3cfe:	643b      	str	r3, [r7, #64]	; 0x40
    3d00:	f04f 0200 	mov.w	r2, #0
    3d04:	f04f 0300 	mov.w	r3, #0
    3d08:	e9c7 230c 	strd	r2, r3, [r7, #48]	; 0x30
    3d0c:	f04f 0301 	mov.w	r3, #1
    3d10:	64bb      	str	r3, [r7, #72]	; 0x48
    3d12:	e072      	b.n	3dfa <uart_set_divisors+0x18e>
    3d14:	f04f 0300 	mov.w	r3, #0
    3d18:	64fb      	str	r3, [r7, #76]	; 0x4c
    3d1a:	e061      	b.n	3de0 <uart_set_divisors+0x174>
    3d1c:	6d39      	ldr	r1, [r7, #80]	; 0x50
    3d1e:	460a      	mov	r2, r1
    3d20:	f04f 0300 	mov.w	r3, #0
    3d24:	ea4f 1112 	mov.w	r1, r2, lsr #4
    3d28:	ea4f 7903 	mov.w	r9, r3, lsl #28
    3d2c:	ea41 0909 	orr.w	r9, r1, r9
    3d30:	ea4f 7802 	mov.w	r8, r2, lsl #28
    3d34:	6cb9      	ldr	r1, [r7, #72]	; 0x48
    3d36:	460a      	mov	r2, r1
    3d38:	f04f 0300 	mov.w	r3, #0
    3d3c:	fb02 f009 	mul.w	r0, r2, r9
    3d40:	fb08 f103 	mul.w	r1, r8, r3
    3d44:	1841      	adds	r1, r0, r1
    3d46:	fba8 2302 	umull	r2, r3, r8, r2
    3d4a:	18c9      	adds	r1, r1, r3
    3d4c:	460b      	mov	r3, r1
    3d4e:	6cb8      	ldr	r0, [r7, #72]	; 0x48
    3d50:	6cf9      	ldr	r1, [r7, #76]	; 0x4c
    3d52:	1841      	adds	r1, r0, r1
    3d54:	6938      	ldr	r0, [r7, #16]
    3d56:	fb00 f101 	mul.w	r1, r0, r1
    3d5a:	460c      	mov	r4, r1
    3d5c:	f04f 0500 	mov.w	r5, #0
    3d60:	4610      	mov	r0, r2
    3d62:	4619      	mov	r1, r3
    3d64:	4622      	mov	r2, r4
    3d66:	462b      	mov	r3, r5
    3d68:	f000 fc54 	bl	4614 <__aeabi_uldivmod>
    3d6c:	4602      	mov	r2, r0
    3d6e:	460b      	mov	r3, r1
    3d70:	e9c7 2308 	strd	r2, r3, [r7, #32]
    3d74:	6a3b      	ldr	r3, [r7, #32]
    3d76:	62fb      	str	r3, [r7, #44]	; 0x2c
    3d78:	6a7b      	ldr	r3, [r7, #36]	; 0x24
    3d7a:	461b      	mov	r3, r3
    3d7c:	60bb      	str	r3, [r7, #8]
    3d7e:	f04f 0100 	mov.w	r1, #0
    3d82:	60f9      	str	r1, [r7, #12]
    3d84:	68bb      	ldr	r3, [r7, #8]
    3d86:	63fb      	str	r3, [r7, #60]	; 0x3c
    3d88:	6afb      	ldr	r3, [r7, #44]	; 0x2c
    3d8a:	f1b3 4f00 	cmp.w	r3, #2147483648	; 0x80000000
    3d8e:	d907      	bls.n	3da0 <uart_set_divisors+0x134>
    3d90:	6afb      	ldr	r3, [r7, #44]	; 0x2c
    3d92:	f1c3 0300 	rsb	r3, r3, #0
    3d96:	62fb      	str	r3, [r7, #44]	; 0x2c
    3d98:	6bfb      	ldr	r3, [r7, #60]	; 0x3c
    3d9a:	f103 0301 	add.w	r3, r3, #1
    3d9e:	63fb      	str	r3, [r7, #60]	; 0x3c
    3da0:	6bfb      	ldr	r3, [r7, #60]	; 0x3c
    3da2:	2b00      	cmp	r3, #0
    3da4:	d017      	beq.n	3dd6 <uart_set_divisors+0x16a>
    3da6:	6bfb      	ldr	r3, [r7, #60]	; 0x3c
    3da8:	f5b3 3f80 	cmp.w	r3, #65536	; 0x10000
    3dac:	d813      	bhi.n	3dd6 <uart_set_divisors+0x16a>
    3dae:	6afa      	ldr	r2, [r7, #44]	; 0x2c
    3db0:	6abb      	ldr	r3, [r7, #40]	; 0x28
    3db2:	429a      	cmp	r2, r3
    3db4:	d210      	bcs.n	3dd8 <uart_set_divisors+0x16c>
    3db6:	6afb      	ldr	r3, [r7, #44]	; 0x2c
    3db8:	62bb      	str	r3, [r7, #40]	; 0x28
    3dba:	6bf9      	ldr	r1, [r7, #60]	; 0x3c
    3dbc:	460a      	mov	r2, r1
    3dbe:	f04f 0300 	mov.w	r3, #0
    3dc2:	e9c7 230c 	strd	r2, r3, [r7, #48]	; 0x30
    3dc6:	6cfb      	ldr	r3, [r7, #76]	; 0x4c
    3dc8:	647b      	str	r3, [r7, #68]	; 0x44
    3dca:	6cbb      	ldr	r3, [r7, #72]	; 0x48
    3dcc:	643b      	str	r3, [r7, #64]	; 0x40
    3dce:	6abb      	ldr	r3, [r7, #40]	; 0x28
    3dd0:	2b00      	cmp	r3, #0
    3dd2:	d00a      	beq.n	3dea <uart_set_divisors+0x17e>
    3dd4:	e000      	b.n	3dd8 <uart_set_divisors+0x16c>
    3dd6:	bf00      	nop
    3dd8:	6cfb      	ldr	r3, [r7, #76]	; 0x4c
    3dda:	f103 0301 	add.w	r3, r3, #1
    3dde:	64fb      	str	r3, [r7, #76]	; 0x4c
    3de0:	6cfa      	ldr	r2, [r7, #76]	; 0x4c
    3de2:	6cbb      	ldr	r3, [r7, #72]	; 0x48
    3de4:	429a      	cmp	r2, r3
    3de6:	d399      	bcc.n	3d1c <uart_set_divisors+0xb0>
    3de8:	e000      	b.n	3dec <uart_set_divisors+0x180>
    3dea:	bf00      	nop
    3dec:	6abb      	ldr	r3, [r7, #40]	; 0x28
    3dee:	2b00      	cmp	r3, #0
    3df0:	d007      	beq.n	3e02 <uart_set_divisors+0x196>
    3df2:	6cbb      	ldr	r3, [r7, #72]	; 0x48
    3df4:	f103 0301 	add.w	r3, r3, #1
    3df8:	64bb      	str	r3, [r7, #72]	; 0x48
    3dfa:	6cbb      	ldr	r3, [r7, #72]	; 0x48
    3dfc:	2b0f      	cmp	r3, #15
    3dfe:	d989      	bls.n	3d14 <uart_set_divisors+0xa8>
    3e00:	e000      	b.n	3e04 <uart_set_divisors+0x198>
    3e02:	bf00      	nop
    3e04:	e9d7 230c 	ldrd	r2, r3, [r7, #48]	; 0x30
    3e08:	ea52 0103 	orrs.w	r1, r2, r3
    3e0c:	d102      	bne.n	3e14 <uart_set_divisors+0x1a8>
    3e0e:	f04f 0300 	mov.w	r3, #0
    3e12:	e0aa      	b.n	3f6a <uart_set_divisors+0x2fe>
    3e14:	6d3b      	ldr	r3, [r7, #80]	; 0x50
    3e16:	ea4f 1313 	mov.w	r3, r3, lsr #4
    3e1a:	6c3a      	ldr	r2, [r7, #64]	; 0x40
    3e1c:	fb02 f303 	mul.w	r3, r2, r3
    3e20:	4618      	mov	r0, r3
    3e22:	f04f 0100 	mov.w	r1, #0
    3e26:	6c3a      	ldr	r2, [r7, #64]	; 0x40
    3e28:	6c7b      	ldr	r3, [r7, #68]	; 0x44
    3e2a:	18d4      	adds	r4, r2, r3
    3e2c:	4622      	mov	r2, r4
    3e2e:	f04f 0300 	mov.w	r3, #0
    3e32:	6b3c      	ldr	r4, [r7, #48]	; 0x30
    3e34:	fb03 f504 	mul.w	r5, r3, r4
    3e38:	6b7c      	ldr	r4, [r7, #52]	; 0x34
    3e3a:	fb02 f404 	mul.w	r4, r2, r4
    3e3e:	192c      	adds	r4, r5, r4
    3e40:	6b3d      	ldr	r5, [r7, #48]	; 0x30
    3e42:	fba5 2302 	umull	r2, r3, r5, r2
    3e46:	18e4      	adds	r4, r4, r3
    3e48:	4623      	mov	r3, r4
    3e4a:	f000 fbe3 	bl	4614 <__aeabi_uldivmod>
    3e4e:	4602      	mov	r2, r0
    3e50:	460b      	mov	r3, r1
    3e52:	4613      	mov	r3, r2
    3e54:	61fb      	str	r3, [r7, #28]
    3e56:	693a      	ldr	r2, [r7, #16]
    3e58:	69fb      	ldr	r3, [r7, #28]
    3e5a:	429a      	cmp	r2, r3
    3e5c:	d904      	bls.n	3e68 <uart_set_divisors+0x1fc>
    3e5e:	693a      	ldr	r2, [r7, #16]
    3e60:	69fb      	ldr	r3, [r7, #28]
    3e62:	1ad3      	subs	r3, r2, r3
    3e64:	62bb      	str	r3, [r7, #40]	; 0x28
    3e66:	e003      	b.n	3e70 <uart_set_divisors+0x204>
    3e68:	69fa      	ldr	r2, [r7, #28]
    3e6a:	693b      	ldr	r3, [r7, #16]
    3e6c:	1ad3      	subs	r3, r2, r3
    3e6e:	62bb      	str	r3, [r7, #40]	; 0x28
    3e70:	6abb      	ldr	r3, [r7, #40]	; 0x28
    3e72:	f04f 0264 	mov.w	r2, #100	; 0x64
    3e76:	fb02 f203 	mul.w	r2, r2, r3
    3e7a:	693b      	ldr	r3, [r7, #16]
    3e7c:	fbb2 f3f3 	udiv	r3, r2, r3
    3e80:	62bb      	str	r3, [r7, #40]	; 0x28
    3e82:	6abb      	ldr	r3, [r7, #40]	; 0x28
    3e84:	2b02      	cmp	r3, #2
    3e86:	d86e      	bhi.n	3f66 <uart_set_divisors+0x2fa>
    3e88:	697a      	ldr	r2, [r7, #20]
    3e8a:	f04f 0300 	mov.w	r3, #0
    3e8e:	f2c4 0301 	movt	r3, #16385	; 0x4001
    3e92:	429a      	cmp	r2, r3
    3e94:	d131      	bne.n	3efa <uart_set_divisors+0x28e>
    3e96:	697b      	ldr	r3, [r7, #20]
    3e98:	7b1b      	ldrb	r3, [r3, #12]
    3e9a:	b2db      	uxtb	r3, r3
    3e9c:	f063 037f 	orn	r3, r3, #127	; 0x7f
    3ea0:	b2da      	uxtb	r2, r3
    3ea2:	697b      	ldr	r3, [r7, #20]
    3ea4:	731a      	strb	r2, [r3, #12]
    3ea6:	6b7b      	ldr	r3, [r7, #52]	; 0x34
    3ea8:	ea4f 6303 	mov.w	r3, r3, lsl #24
    3eac:	6b3a      	ldr	r2, [r7, #48]	; 0x30
    3eae:	ea4f 2212 	mov.w	r2, r2, lsr #8
    3eb2:	603a      	str	r2, [r7, #0]
    3eb4:	683a      	ldr	r2, [r7, #0]
    3eb6:	431a      	orrs	r2, r3
    3eb8:	603a      	str	r2, [r7, #0]
    3eba:	6b7b      	ldr	r3, [r7, #52]	; 0x34
    3ebc:	ea4f 2313 	mov.w	r3, r3, lsr #8
    3ec0:	607b      	str	r3, [r7, #4]
    3ec2:	783b      	ldrb	r3, [r7, #0]
    3ec4:	b2da      	uxtb	r2, r3
    3ec6:	697b      	ldr	r3, [r7, #20]
    3ec8:	711a      	strb	r2, [r3, #4]
    3eca:	f897 2030 	ldrb.w	r2, [r7, #48]	; 0x30
    3ece:	697b      	ldr	r3, [r7, #20]
    3ed0:	701a      	strb	r2, [r3, #0]
    3ed2:	697b      	ldr	r3, [r7, #20]
    3ed4:	7b1b      	ldrb	r3, [r3, #12]
    3ed6:	b2db      	uxtb	r3, r3
    3ed8:	f003 037f 	and.w	r3, r3, #127	; 0x7f
    3edc:	b2da      	uxtb	r2, r3
    3ede:	697b      	ldr	r3, [r7, #20]
    3ee0:	731a      	strb	r2, [r3, #12]
    3ee2:	6c3b      	ldr	r3, [r7, #64]	; 0x40
    3ee4:	ea4f 1303 	mov.w	r3, r3, lsl #4
    3ee8:	b2da      	uxtb	r2, r3
    3eea:	6c7b      	ldr	r3, [r7, #68]	; 0x44
    3eec:	f003 030f 	and.w	r3, r3, #15
    3ef0:	4313      	orrs	r3, r2
    3ef2:	b2da      	uxtb	r2, r3
    3ef4:	697b      	ldr	r3, [r7, #20]
    3ef6:	629a      	str	r2, [r3, #40]	; 0x28
    3ef8:	e031      	b.n	3f5e <uart_set_divisors+0x2f2>
    3efa:	697b      	ldr	r3, [r7, #20]
    3efc:	7b1b      	ldrb	r3, [r3, #12]
    3efe:	b2db      	uxtb	r3, r3
    3f00:	f063 037f 	orn	r3, r3, #127	; 0x7f
    3f04:	b2da      	uxtb	r2, r3
    3f06:	697b      	ldr	r3, [r7, #20]
    3f08:	731a      	strb	r2, [r3, #12]
    3f0a:	6b7b      	ldr	r3, [r7, #52]	; 0x34
    3f0c:	ea4f 6303 	mov.w	r3, r3, lsl #24
    3f10:	6b3a      	ldr	r2, [r7, #48]	; 0x30
    3f12:	ea4f 2a12 	mov.w	sl, r2, lsr #8
    3f16:	ea43 0a0a 	orr.w	sl, r3, sl
    3f1a:	6b7b      	ldr	r3, [r7, #52]	; 0x34
    3f1c:	ea4f 2b13 	mov.w	fp, r3, lsr #8
    3f20:	fa5f f28a 	uxtb.w	r2, sl
    3f24:	697b      	ldr	r3, [r7, #20]
    3f26:	711a      	strb	r2, [r3, #4]
    3f28:	f897 2030 	ldrb.w	r2, [r7, #48]	; 0x30
    3f2c:	697b      	ldr	r3, [r7, #20]
    3f2e:	701a      	strb	r2, [r3, #0]
    3f30:	697b      	ldr	r3, [r7, #20]
    3f32:	7b1b      	ldrb	r3, [r3, #12]
    3f34:	b2db      	uxtb	r3, r3
    3f36:	f003 037f 	and.w	r3, r3, #127	; 0x7f
    3f3a:	b2da      	uxtb	r2, r3
    3f3c:	697b      	ldr	r3, [r7, #20]
    3f3e:	731a      	strb	r2, [r3, #12]
    3f40:	6c3b      	ldr	r3, [r7, #64]	; 0x40
    3f42:	b2db      	uxtb	r3, r3
    3f44:	ea4f 1303 	mov.w	r3, r3, lsl #4
    3f48:	b2da      	uxtb	r2, r3
    3f4a:	6c7b      	ldr	r3, [r7, #68]	; 0x44
    3f4c:	b2db      	uxtb	r3, r3
    3f4e:	f003 030f 	and.w	r3, r3, #15
    3f52:	b2db      	uxtb	r3, r3
    3f54:	4313      	orrs	r3, r2
    3f56:	b2da      	uxtb	r2, r3
    3f58:	697b      	ldr	r3, [r7, #20]
    3f5a:	f883 2028 	strb.w	r2, [r3, #40]	; 0x28
    3f5e:	f04f 0301 	mov.w	r3, #1
    3f62:	f887 3057 	strb.w	r3, [r7, #87]	; 0x57
    3f66:	f897 3057 	ldrb.w	r3, [r7, #87]	; 0x57
    3f6a:	4618      	mov	r0, r3
    3f6c:	f107 0758 	add.w	r7, r7, #88	; 0x58
    3f70:	46bd      	mov	sp, r7
    3f72:	e8bd 8fb0 	ldmia.w	sp!, {r4, r5, r7, r8, r9, sl, fp, pc}
    3f76:	bf00      	nop

00003f78 <UART_Init>:
    3f78:	b580      	push	{r7, lr}
    3f7a:	b084      	sub	sp, #16
    3f7c:	af00      	add	r7, sp, #0
    3f7e:	6078      	str	r0, [r7, #4]
    3f80:	6039      	str	r1, [r7, #0]
    3f82:	687a      	ldr	r2, [r7, #4]
    3f84:	f44f 4340 	mov.w	r3, #49152	; 0xc000
    3f88:	f2c4 0300 	movt	r3, #16384	; 0x4000
    3f8c:	429a      	cmp	r2, r3
    3f8e:	d105      	bne.n	3f9c <UART_Init+0x24>
    3f90:	f04f 0008 	mov.w	r0, #8
    3f94:	f04f 0101 	mov.w	r1, #1
    3f98:	f7fe ff78 	bl	2e8c <CLKPWR_ConfigPPWR>
    3f9c:	687a      	ldr	r2, [r7, #4]
    3f9e:	f04f 0300 	mov.w	r3, #0
    3fa2:	f2c4 0301 	movt	r3, #16385	; 0x4001
    3fa6:	429a      	cmp	r2, r3
    3fa8:	d14e      	bne.n	4048 <UART_Init+0xd0>
    3faa:	687b      	ldr	r3, [r7, #4]
    3fac:	f04f 0207 	mov.w	r2, #7
    3fb0:	721a      	strb	r2, [r3, #8]
    3fb2:	687b      	ldr	r3, [r7, #4]
    3fb4:	f04f 0200 	mov.w	r2, #0
    3fb8:	721a      	strb	r2, [r3, #8]
    3fba:	e003      	b.n	3fc4 <UART_Init+0x4c>
    3fbc:	687b      	ldr	r3, [r7, #4]
    3fbe:	781b      	ldrb	r3, [r3, #0]
    3fc0:	b2db      	uxtb	r3, r3
    3fc2:	60fb      	str	r3, [r7, #12]
    3fc4:	687b      	ldr	r3, [r7, #4]
    3fc6:	7d1b      	ldrb	r3, [r3, #20]
    3fc8:	b2db      	uxtb	r3, r3
    3fca:	f003 0301 	and.w	r3, r3, #1
    3fce:	b2db      	uxtb	r3, r3
    3fd0:	2b00      	cmp	r3, #0
    3fd2:	d1f3      	bne.n	3fbc <UART_Init+0x44>
    3fd4:	687b      	ldr	r3, [r7, #4]
    3fd6:	f04f 0280 	mov.w	r2, #128	; 0x80
    3fda:	f883 2030 	strb.w	r2, [r3, #48]	; 0x30
    3fde:	bf00      	nop
    3fe0:	687b      	ldr	r3, [r7, #4]
    3fe2:	7d1b      	ldrb	r3, [r3, #20]
    3fe4:	b2db      	uxtb	r3, r3
    3fe6:	f003 0320 	and.w	r3, r3, #32
    3fea:	2b00      	cmp	r3, #0
    3fec:	d0f8      	beq.n	3fe0 <UART_Init+0x68>
    3fee:	687b      	ldr	r3, [r7, #4]
    3ff0:	f04f 0200 	mov.w	r2, #0
    3ff4:	f883 2030 	strb.w	r2, [r3, #48]	; 0x30
    3ff8:	687b      	ldr	r3, [r7, #4]
    3ffa:	f04f 0200 	mov.w	r2, #0
    3ffe:	605a      	str	r2, [r3, #4]
    4000:	687b      	ldr	r3, [r7, #4]
    4002:	f04f 0200 	mov.w	r2, #0
    4006:	731a      	strb	r2, [r3, #12]
    4008:	687b      	ldr	r3, [r7, #4]
    400a:	f04f 0200 	mov.w	r2, #0
    400e:	621a      	str	r2, [r3, #32]
    4010:	687b      	ldr	r3, [r7, #4]
    4012:	f04f 0200 	mov.w	r2, #0
    4016:	741a      	strb	r2, [r3, #16]
    4018:	687b      	ldr	r3, [r7, #4]
    401a:	f04f 0200 	mov.w	r2, #0
    401e:	f883 204c 	strb.w	r2, [r3, #76]	; 0x4c
    4022:	687b      	ldr	r3, [r7, #4]
    4024:	f04f 0200 	mov.w	r2, #0
    4028:	f883 2054 	strb.w	r2, [r3, #84]	; 0x54
    402c:	687b      	ldr	r3, [r7, #4]
    402e:	f04f 0200 	mov.w	r2, #0
